(dp0
S'PF09749'
p1
(lp2
S'EC:3.1'
p3
asS'TIGR01449'
p4
(lp5
S'EC:3.1.3.18'
p6
asS'PF09298'
p7
(lp8
S'EC:3.7.1.2'
p9
asS'TIGR00629'
p10
(lp11
S'EC:3'
p12
asS'PF01288'
p13
(lp14
S'EC:2.7.6.3'
p15
asS'TIGR01441'
p16
(lp17
S'EC:3.4.24.78'
p18
asS'PF09290'
p19
(lp20
S'EC:1.2.1.10'
p21
asS'PF09297'
p22
(lp23
S'EC:3'
p24
asS'PF09296'
p25
(lp26
S'EC:3'
p27
asS'TIGR01447'
p28
(lp29
S'EC:3.1.11.5'
p30
asS'PF10664'
p31
(lp32
S'EC:1.6.5'
p33
asS'PF01111'
p34
(lp35
S'EC:2.7.1'
p36
asS'PF01112'
p37
(lp38
S'EC:3'
p39
asS'PF01113'
p40
(lp41
S'EC:1.17.1.8'
p42
asS'PF01116'
p43
(lp44
S'EC:4.1.2'
p45
asS'PF01118'
p46
(lp47
S'EC:1.2.1'
p48
asS'PF11791'
p49
(lp50
S'EC:4.2.1.3'
p51
asS'TIGR02658'
p52
(lp53
S'EC:1.4.9.1'
p54
asS'PF02702'
p55
(lp56
S'EC:2.7.3'
p57
asS'PF05430'
p58
(lp59
S'EC:1.5'
p60
asS'PF02709'
p61
(lp62
S'EC:2.4.1.90'
p63
asS'PF01738'
p64
(lp65
S'EC:3'
p66
asS'TIGR04400'
p67
(lp68
S'EC:3.1.3'
p69
asS'PF01731'
p70
(lp71
S'EC:3.1.1.2'
p72
asS'PF08437'
p73
(lp74
S'EC:2.4.1.44'
p75
asS'PF01735'
p76
(lp77
S'EC:3.1.1.5'
p78
asS'PF11421'
p79
(lp80
S'EC:3.6.1.3'
p81
asS'TIGR01178'
p82
(lp83
S'EC:3.5.4.2'
p84
asS'PF00885'
p85
(lp86
S'EC:2.5.1.9'
p87
asS'PF00732'
p88
(lp89
S'EC:1.1'
p90
asS'PF00883'
p91
(lp92
S'EC:3.4.11'
p93
asS'PF00734'
p94
(lp95
S'EC:3.2.1'
p96
asS'TIGR01810'
p97
(lp98
S'EC:1.1.99.1'
p99
asS'PF05547'
p100
(lp101
S'EC:3.4'
p102
asS'PF08501'
p103
(lp104
S'EC:1.1.1.25'
p105
asS'PF08502'
p106
(lp107
S'EC:2.3.3.13'
p108
asS'PF08503'
p109
(lp110
S'EC:2.3.1.89'
p111
asS'PF05543'
p112
(lp113
S'EC:3.4'
p114
asS'PF04898'
p115
(lp116
S'EC:1.4'
p117
asS'PF08509'
p118
(lp119
S'EC:4.6.1.1'
p120
asS'TIGR02946'
p121
(lp122
S'EC:2.3.1'
p123
asS'PF04231'
p124
(lp125
S'EC:3.1'
p126
asS'PF08236'
p127
(lp128
S'EC:2.1.1.43'
p129
asS'PF01425'
p130
(lp131
S'EC:6.3.5'
p132
asS'PF08235'
p133
(lp134
S'EC:3.1.3.4'
p135
asS'PF04140'
p136
(lp137
S'EC:2.1.1.100'
p138
asS'PF01421'
p139
(lp140
S'EC:3.4.24'
p141
asS'PF04414'
p142
(lp143
S'EC:3.1'
p144
asS'TIGR00013'
p145
(lp146
S'EC:5.3.2'
p147
asS'TIGR03565'
p148
(lp149
S'EC:1.14.14.5'
p150
asS'TIGR03564'
p151
(lp152
S'EC:1'
p153
asS'TIGR03567'
p154
(lp155
S'EC:1.5.1.38'
p156
asS'TIGR03566'
p157
(lp158
S'EC:1.5.1'
p159
asS'TIGR04243'
p160
(lp161
S'EC:3.5.1'
p162
asS'TIGR04242'
p163
(lp164
S'EC:2.4.1'
p165
asS'TIGR01075'
p166
(lp167
S'EC:3.6.4.12'
p168
asS'PF08727'
p169
(lp170
S'EC:3.4.22'
p171
asS'TIGR00091'
p172
(lp173
S'EC:2.1.1.33'
p174
asS'PF04095'
p175
(lp176
S'EC:2.4.2.11'
p177
asS'PF00089'
p178
(lp179
S'EC:3.4.21'
p180
asS'TIGR00095'
p181
(lp182
S'EC:2.1.1.171'
p183
asS'TIGR00096'
p184
(lp185
S'EC:2.1.1.198'
p186
asS'TIGR00097'
p187
(lp188
S'EC:2.7.1.49'
p189
aS'EC:2.7.4.7'
p190
asS'PF00081'
p191
(lp192
S'EC:1.15.1.1'
p193
asS'TIGR01378'
p194
(lp195
S'EC:2.7.6.2'
p196
asS'PF00082'
p197
(lp198
S'EC:3.4.21'
p199
asS'TIGR01107'
p200
(lp201
S'EC:3.6.3.9'
p202
asS'TIGR01296'
p203
(lp204
S'EC:1.2.1.11'
p205
asS'PF07966'
p206
(lp207
S'EC:3.4.23'
p208
asS'PF00644'
p209
(lp210
S'EC:2.4.2.30'
p211
asS'PF00067'
p212
(lp213
S'EC:1.14'
p214
asS'TIGR02769'
p215
(lp216
S'EC:3.6.3.24'
p217
asS'PF00064'
p218
(lp219
S'EC:3.2.1.18'
p220
asS'PF01563'
p221
(lp222
S'EC:3.4.21'
p223
asS'PF00061'
p224
(lp225
S'EC:5.3.99.2'
p226
asS'TIGR02760'
p227
(lp228
S'EC:3.6.4.12'
p229
asS'TIGR01072'
p230
(lp231
S'EC:2.5.1.7'
p232
asS'PF06560'
p233
(lp234
S'EC:5.3.1.9'
p235
asS'PF04705'
p236
(lp237
S'EC:2.1.1'
p238
asS'PF08658'
p239
(lp240
S'EC:3.6'
p241
asS'TIGR00546'
p242
(lp243
S'EC:2.3.1'
p244
asS'TIGR00544'
p245
(lp246
S'EC:2.4.99'
p247
asS'PF06964'
p248
(lp249
S'EC:3.2.1.55'
p250
asS'TIGR00543'
p251
(lp252
S'EC:5.4.4.2'
p253
asS'TIGR00541'
p254
(lp255
S'EC:4.1.1.22'
p256
asS'PF06968'
p257
(lp258
S'EC:2.8.1.6'
p259
asS'TIGR04395'
p260
(lp261
S'EC:1.97'
p262
asS'TIGR04394'
p263
(lp264
S'EC:4.3.99.4'
p265
asS'TIGR00549'
p266
(lp267
S'EC:2.7.1.36'
p268
asS'TIGR01156'
p269
(lp270
S'EC:1.10.9.1'
p271
asS'TIGR01151'
p272
(lp273
S'EC:1.10.3.9'
p274
asS'PF00463'
p275
(lp276
S'EC:4.1.3.1'
p277
asS'PF00390'
p278
(lp279
S'EC:1.1.1.38'
p280
asS'PF00393'
p281
(lp282
S'EC:1.1.1.44'
p283
asS'PF00394'
p284
(lp285
S'EC:1'
p286
asS'PF00465'
p287
(lp288
S'EC:1'
p289
asS'PF00464'
p290
(lp291
S'EC:2'
p292
asS'TIGR03538'
p293
(lp294
S'EC:2.6.1.17'
p295
asS'TIGR02494'
p296
(lp297
S'EC:1.97.1'
p298
asS'PF06703'
p299
(lp300
S'EC:3.4'
p301
asS'TIGR02493'
p302
(lp303
S'EC:1.97.1.4'
p304
asS'TIGR02491'
p305
(lp306
S'EC:1.97.1'
p307
asS'TIGR00403'
p308
(lp309
S'EC:1.6.5.3'
p310
asS'PF07143'
p311
(lp312
S'EC:1'
p313
asS'TIGR00407'
p314
(lp315
S'EC:1.2.1.41'
p316
asS'TIGR00406'
p317
(lp318
S'EC:2.1.1'
p319
asS'PF06491'
p320
(lp321
S'EC:5.3.4.1'
p322
asS'TIGR00409'
p323
(lp324
S'EC:6.1.1.15'
p325
asS'TIGR00408'
p326
(lp327
S'EC:6.1.1.15'
p328
asS'TIGR00260'
p329
(lp330
S'EC:4.2.3.1'
p331
asS'PF07247'
p332
(lp333
S'EC:2.3.1.84'
p334
asS'TIGR03705'
p335
(lp336
S'EC:2.7.4.1'
p337
asS'PF01059'
p338
(lp339
S'EC:1.6.5.3'
p340
asS'TIGR03707'
p341
(lp342
S'EC:2.7.4.1'
p343
asS'TIGR03706'
p344
(lp345
S'EC:3.6.1.11'
p346
asS'TIGR03703'
p347
(lp348
S'EC:2.3.1.15'
p349
asS'TIGR03702'
p350
(lp351
S'EC:2.7.1'
p352
asS'TIGR03709'
p353
(lp354
S'EC:2.7.4'
p355
asS'TIGR03708'
p356
(lp357
S'EC:2.7.4'
p358
asS'PF00265'
p359
(lp360
S'EC:2.7.1.21'
p361
asS'PF00264'
p362
(lp363
S'EC:1'
p364
asS'PF06368'
p365
(lp366
S'EC:5.4.99.1'
p367
asS'TIGR00603'
p368
(lp369
S'EC:3.6.4.12'
p370
asS'TIGR03343'
p371
(lp372
S'EC:3.7.1'
p373
asS'PF07819'
p374
(lp375
S'EC:3.1'
p376
asS'TIGR01840'
p377
(lp378
S'EC:3.1.1'
p379
asS'PF06631'
p380
(lp381
S'EC:3.1.4.3'
p382
asS'TIGR01849'
p383
(lp384
S'EC:3.1.1'
p385
asS'TIGR02380'
p386
(lp387
S'EC:2.7.8.33'
p388
asS'TIGR00938'
p389
(lp390
S'EC:2.7.1.39'
p391
asS'TIGR02386'
p392
(lp393
S'EC:2.7.7.6'
p394
asS'TIGR02387'
p395
(lp396
S'EC:2.7.7.6'
p397
asS'PF03283'
p398
(lp399
S'EC:3.1.1.1'
p400
asS'TIGR02388'
p401
(lp402
S'EC:2.7.7.6'
p403
asS'TIGR02389'
p404
(lp405
S'EC:2.7.7.6'
p406
asS'TIGR02540'
p407
(lp408
S'EC:1.11.1.9'
p409
asS'TIGR03018'
p410
(lp411
S'EC:2.7.10.2'
p412
asS'TIGR00715'
p413
(lp414
S'EC:1.3.1.54'
p415
asS'TIGR00713'
p416
(lp417
S'EC:5.4.3.8'
p418
asS'PF08919'
p419
(lp420
S'EC:2.7.10.2'
p421
asS'TIGR02546'
p422
(lp423
S'EC:3.6.3.14'
p424
asS'PF03512'
p425
(lp426
S'EC:3.2.1.37'
p427
asS'PF03510'
p428
(lp429
S'EC:3.4.22'
p430
asS'PF02358'
p431
(lp432
S'EC:3.1.3.12'
p433
asS'TIGR02630'
p434
(lp435
S'EC:5.3.1.5'
p436
asS'TIGR00719'
p437
(lp438
S'EC:4.3.1.17'
p439
asS'TIGR00718'
p440
(lp441
S'EC:4.3.1.17'
p442
asS'TIGR00858'
p443
(lp444
S'EC:2.3.1.47'
p445
asS'TIGR03081'
p446
(lp447
S'EC:5.1.99.1'
p448
asS'TIGR03182'
p449
(lp450
S'EC:1.2.4.1'
p451
asS'PF14552'
p452
(lp453
S'EC:5'
p454
asS'TIGR03228'
p455
(lp456
S'EC:1.14.12.1'
p457
asS'TIGR01938'
p458
(lp459
S'EC:1.6.5'
p460
asS'TIGR01939'
p461
(lp462
S'EC:1.6.5'
p463
asS'TIGR03229'
p464
(lp465
S'EC:1.14.12.10'
p466
asS'TIGR01930'
p467
(lp468
S'EC:2.3.1.16'
p469
asS'TIGR01931'
p470
(lp471
S'EC:1.8.1.2'
p472
asS'TIGR02635'
p473
(lp474
S'EC:5.3.1.14'
p475
asS'TIGR01934'
p476
(lp477
S'EC:2.1.1'
p478
asS'TIGR01936'
p479
(lp480
S'EC:1.6.5'
p481
asS'TIGR01937'
p482
(lp483
S'EC:1.6.5'
p484
asS'TIGR03374'
p485
(lp486
S'EC:1.2.1.19'
p487
asS'TIGR03376'
p488
(lp489
S'EC:1.1.1.8'
p490
asS'TIGR03377'
p491
(lp492
S'EC:1.1.5.3'
p493
asS'PF02249'
p494
(lp495
S'EC:2.8.4.1'
p496
asS'PF02603'
p497
(lp498
S'EC:2.7.3'
p499
asS'TIGR03372'
p500
(lp501
S'EC:2.6.1.82'
p502
asS'PF06039'
p503
(lp504
S'EC:1.1.99.16'
p505
asS'PF08886'
p506
(lp507
S'EC:6.3.2.2'
p508
asS'PF02241'
p509
(lp510
S'EC:2.8.4.1'
p511
asS'PF02240'
p512
(lp513
S'EC:2.8.4.1'
p514
asS'PF03602'
p515
(lp516
S'EC:2.1.1'
p517
asS'TIGR03175'
p518
(lp519
S'EC:1.1.1.154'
p520
asS'TIGR03178'
p521
(lp522
S'EC:3.5.2.5'
p523
asS'TIGR04475'
p524
(lp525
S'EC:5.4.3.11'
p526
asS'TIGR02931'
p527
(lp528
S'EC:1.18.6.1'
p529
asS'TIGR02257'
p530
(lp531
S'EC:6.6.1.2'
p532
asS'TIGR02930'
p533
(lp534
S'EC:1.18.6.1'
p535
asS'TIGR03311'
p536
(lp537
S'EC:1.17.1.4'
p538
asS'TIGR01223'
p539
(lp540
S'EC:2.7.4.2'
p541
asS'PF03639'
p542
(lp543
S'EC:3.2.1.6'
p544
asS'TIGR00518'
p545
(lp546
S'EC:1.4.1.1'
p547
asS'PF13302'
p548
(lp549
S'EC:2.3.1'
p550
asS'PF13303'
p551
(lp552
S'EC:2.7.1.69'
p553
asS'TIGR02151'
p554
(lp555
S'EC:5.3.3.2'
p556
asS'TIGR02150'
p557
(lp558
S'EC:5.3.3.2'
p559
asS'PF13307'
p560
(lp561
S'EC:3.6.1'
p562
asS'TIGR02155'
p563
(lp564
S'EC:6.2.1.30'
p565
asS'TIGR04324'
p566
(lp567
S'EC:1'
p568
asS'TIGR01621'
p569
(lp570
S'EC:5.4.99'
p571
asS'PF03460'
p572
(lp573
S'EC:1'
p574
asS'TIGR04170'
p575
(lp576
S'EC:1.17.4.1'
p577
asS'PF02649'
p578
(lp579
S'EC:3.5.4'
p580
asS'TIGR00979'
p581
(lp582
S'EC:4.2.1.2'
p583
asS'TIGR00978'
p584
(lp585
S'EC:1.2.1.11'
p586
asS'TIGR00977'
p587
(lp588
S'EC:2.3.1.182'
p589
asS'TIGR02438'
p590
(lp591
S'EC:1.13.11.1'
p592
asS'TIGR00973'
p593
(lp594
S'EC:2.3.3.13'
p595
asS'TIGR00972'
p596
(lp597
S'EC:3.6.3.27'
p598
asS'PF02395'
p599
(lp600
S'EC:3.4.21'
p601
asS'TIGR00970'
p602
(lp603
S'EC:2.3.3.13'
p604
asS'TIGR03950'
p605
(lp606
S'EC:1'
p607
asS'TIGR03951'
p608
(lp609
S'EC:1'
p610
asS'TIGR03952'
p611
(lp612
S'EC:3.4.24'
p613
asS'PF10786'
p614
(lp615
S'EC:1.1.1.49'
p616
asS'TIGR03942'
p617
(lp618
S'EC:1.1.99'
p619
asS'TIGR00514'
p620
(lp621
S'EC:6.3.4.14'
p622
asS'TIGR02027'
p623
(lp624
S'EC:2.7.7.6'
p625
asS'TIGR02025'
p626
(lp627
S'EC:6.6.1.1'
p628
asS'TIGR02024'
p629
(lp630
S'EC:2.1.2.5'
p631
asS'TIGR02023'
p632
(lp633
S'EC:1.3.1'
p634
asS'TIGR02022'
p635
(lp636
S'EC:3.5.3.13'
p637
asS'TIGR02021'
p638
(lp639
S'EC:2.1.1.11'
p640
asS'TIGR02020'
p641
(lp642
S'EC:4.2.1'
p643
asS'TIGR01718'
p644
(lp645
S'EC:2.4.2.3'
p646
asS'TIGR01719'
p647
(lp648
S'EC:2.4.2.3'
p649
asS'PF05047'
p650
(lp651
S'EC:1.6.5.3'
p652
asS'TIGR02029'
p653
(lp654
S'EC:1.14.13.81'
p655
asS'PF02803'
p656
(lp657
S'EC:2.3.1'
p658
asS'PF02800'
p659
(lp660
S'EC:1.2.1'
p661
asS'PF02807'
p662
(lp663
S'EC:2.7'
p664
asS'PF02805'
p665
(lp666
S'EC:2.1.1'
p667
asS'TIGR03392'
p668
(lp669
S'EC:2.8.1.7'
p670
asS'TIGR03393'
p671
(lp672
S'EC:4.1.1.74'
p673
asS'TIGR03390'
p674
(lp675
S'EC:1.10.3.3'
p676
asS'TIGR03391'
p677
(lp678
S'EC:2.8.1.7'
p679
asS'TIGR03396'
p680
(lp681
S'EC:3.1.4.3'
p682
asS'TIGR03397'
p683
(lp684
S'EC:3.1'
p685
asS'TIGR03394'
p686
(lp687
S'EC:4.1.1.74'
p688
aS'EC:4.1.1.43'
p689
asS'TIGR03395'
p690
(lp691
S'EC:3.1.4.12'
p692
asS'PF00733'
p693
(lp694
S'EC:6.3.5.4'
p695
asS'TIGR00857'
p696
(lp697
S'EC:3.5.2.3'
p698
asS'PF13718'
p699
(lp700
S'EC:2.3.1'
p701
asS'TIGR01234'
p702
(lp703
S'EC:2.7.1.16'
p704
asS'TIGR01438'
p705
(lp706
S'EC:1.6.4'
p707
asS'TIGR01435'
p708
(lp709
S'EC:6.3.2.2'
p710
aS'EC:6.3.2.3'
p711
asS'TIGR01434'
p712
(lp713
S'EC:6.3.2.2'
p714
asS'TIGR01436'
p715
(lp716
S'EC:6.3.2.2'
p717
asS'PF09284'
p718
(lp719
S'EC:4.2.2'
p720
asS'TIGR01430'
p721
(lp722
S'EC:3.5.4.4'
p723
asS'TIGR01433'
p724
(lp725
S'EC:1.10.3'
p726
asS'TIGR01432'
p727
(lp728
S'EC:1.10.3'
p729
asS'PF10509'
p730
(lp731
S'EC:2.7.1.6'
p732
asS'PF10652'
p733
(lp734
S'EC:5.3.1.9'
p735
asS'PF01129'
p736
(lp737
S'EC:2.4.2.31'
p738
asS'PF01128'
p739
(lp740
S'EC:2.7.7.60'
p741
asS'PF04958'
p742
(lp743
S'EC:2.3.1.109'
p744
asS'PF01127'
p745
(lp746
S'EC:1.3'
p747
asS'PF01126'
p748
(lp749
S'EC:1.14.99.3'
p750
asS'PF01121'
p751
(lp752
S'EC:2.7.1.24'
p753
asS'PF01120'
p754
(lp755
S'EC:3.2.1.51'
p756
asS'PF02730'
p757
(lp758
S'EC:1.2.7'
p759
asS'PF02733'
p760
(lp761
S'EC:2.7.1.29'
p762
asS'PF02732'
p763
(lp764
S'EC:3.1'
p765
asS'PF02734'
p766
(lp767
S'EC:2.7.1.29'
p768
asS'PF02737'
p769
(lp770
S'EC:1.1.1.35'
p771
asS'PF02738'
p772
(lp773
S'EC:1'
p774
asS'TIGR01106'
p775
(lp776
S'EC:3.6.3'
p777
asS'TIGR02822'
p778
(lp779
S'EC:1'
p780
asS'PF05426'
p781
(lp782
S'EC:4'
p783
asS'TIGR02066'
p784
(lp785
S'EC:1.8.99.3'
p786
asS'TIGR00392'
p787
(lp788
S'EC:6.1.1.5'
p789
asS'TIGR02847'
p790
(lp791
S'EC:1.10.3'
p792
asS'TIGR00396'
p793
(lp794
S'EC:6.1.1.4'
p795
asS'TIGR00395'
p796
(lp797
S'EC:6.1.1.4'
p798
asS'TIGR00394'
p799
(lp800
S'EC:2.7.1.69'
p801
asS'TIGR00399'
p802
(lp803
S'EC:6.1.1.10'
p804
asS'PF08402'
p805
(lp806
S'EC:3.6.3'
p807
asS'PF08405'
p808
(lp809
S'EC:3.4.22'
p810
asS'PF08407'
p811
(lp812
S'EC:2.4.1.16'
p813
asS'PF13714'
p814
(lp815
S'EC:5.4.2.9'
p816
asS'TIGR00151'
p817
(lp818
S'EC:4.6.1.12'
p819
asS'TIGR02100'
p820
(lp821
S'EC:3.2.1'
p822
asS'TIGR00152'
p823
(lp824
S'EC:2.7.1.24'
p825
asS'TIGR00154'
p826
(lp827
S'EC:2.7.1.148'
p828
asS'TIGR00157'
p829
(lp830
S'EC:3.6'
p831
asS'TIGR01389'
p832
(lp833
S'EC:3.6.4.12'
p834
asS'TIGR01388'
p835
(lp836
S'EC:3.1.13.5'
p837
asS'TIGR01756'
p838
(lp839
S'EC:1.1.1.27'
p840
asS'PF00722'
p841
(lp842
S'EC:3.2.1'
p843
asS'PF00891'
p844
(lp845
S'EC:2.1.1'
p846
asS'PF00724'
p847
(lp848
S'EC:1'
p849
asS'PF00725'
p850
(lp851
S'EC:1.1.1.35'
p852
asS'TIGR01546'
p853
(lp854
S'EC:1.2.1.59'
p855
asS'PF00728'
p856
(lp857
S'EC:3.2.1'
p858
asS'TIGR04531'
p859
(lp860
S'EC:1.14'
p861
asS'PF05544'
p862
(lp863
S'EC:5.1.1.4'
p864
asS'TIGR04520'
p865
(lp866
S'EC:3.6.3'
p867
asS'TIGR04521'
p868
(lp869
S'EC:3.6.3'
p870
asS'PF08534'
p871
(lp872
S'EC:1'
p873
asS'PF01634'
p874
(lp875
S'EC:2.4.2.17'
p876
asS'PF08533'
p877
(lp878
S'EC:3.2.1.23'
p879
asS'PF08532'
p880
(lp881
S'EC:3.2.1.23'
p882
asS'PF08715'
p883
(lp884
S'EC:3.4.22'
p885
asS'PF08714'
p886
(lp887
S'EC:4.3'
p888
asS'PF08717'
p889
(lp890
S'EC:3.4.22'
p891
asS'PF08240'
p892
(lp893
S'EC:1'
p894
asS'TIGR03574'
p895
(lp896
S'EC:2.7.1.164'
p897
asS'TIGR03575'
p898
(lp899
S'EC:2.7.1.164'
p900
asS'TIGR03573'
p901
(lp902
S'EC:6.3.4'
p903
asS'TIGR03571'
p904
(lp905
S'EC:1'
p906
asS'PF05958'
p907
(lp908
S'EC:2.1.1'
p909
asS'TIGR03297'
p910
(lp911
S'EC:4.1.1.82'
p912
asS'TIGR03220'
p913
(lp914
S'EC:4.2'
p915
asS'TIGR04096'
p916
(lp917
S'EC:2'
p918
asS'TIGR01093'
p919
(lp920
S'EC:4.2.1.10'
p921
asS'TIGR01091'
p922
(lp923
S'EC:2.4.2.9'
p924
asS'TIGR01090'
p925
(lp926
S'EC:2.4.2.7'
p927
asS'TIGR01099'
p928
(lp929
S'EC:2.7.7.9'
p930
asS'PF01256'
p931
(lp932
S'EC:4.2.1'
p933
asS'PF01255'
p934
(lp935
S'EC:2.5.1'
p936
asS'PF01252'
p937
(lp938
S'EC:3.4.23'
p939
asS'TIGR03821'
p940
(lp941
S'EC:5.4.3'
p942
asS'PF00656'
p943
(lp944
S'EC:3.4.22'
p945
asS'PF00657'
p946
(lp947
S'EC:3.1'
p948
asS'TIGR04414'
p949
(lp950
S'EC:2.4.1'
p951
asS'TIGR03822'
p952
(lp953
S'EC:5.4.3'
p954
asS'TIGR04416'
p955
(lp956
S'EC:2.7.7.49'
p957
asS'PF06559'
p958
(lp959
S'EC:3.5.4.13'
p960
asS'PF00070'
p961
(lp962
S'EC:1'
p963
asS'TIGR02715'
p964
(lp965
S'EC:3'
p966
asS'TIGR02714'
p967
(lp968
S'EC:3.5.2'
p969
asS'TIGR02717'
p970
(lp971
S'EC:6.2.1.13'
p972
asS'TIGR02716'
p973
(lp974
S'EC:2.1.1'
p975
asS'TIGR02713'
p976
(lp977
S'EC:3.5.1.54'
p978
asS'TIGR02712'
p979
(lp980
S'EC:6.3.4.6'
p981
asS'PF01427'
p982
(lp983
S'EC:3.4.13'
p984
asS'TIGR00573'
p985
(lp986
S'EC:2.7.7.7'
p987
asS'TIGR03569'
p988
(lp989
S'EC:2.5.1.56'
p990
asS'TIGR00571'
p991
(lp992
S'EC:2.1.1.72'
p993
asS'TIGR01995'
p994
(lp995
S'EC:2.7.1.69'
p996
asS'PF04777'
p997
(lp998
S'EC:1.8.3.2'
p999
asS'TIGR00576'
p1000
(lp1001
S'EC:3.6.1.23'
p1002
asS'TIGR00575'
p1003
(lp1004
S'EC:6.5.1.2'
p1005
asS'TIGR03568'
p1006
(lp1007
S'EC:5.1.3'
p1008
aS'EC:3.1.4'
p1009
asS'TIGR04380'
p1010
(lp1011
S'EC:1.1.1.18'
p1012
asS'PF00387'
p1013
(lp1014
S'EC:3.1.4.11'
p1015
asS'PF00384'
p1016
(lp1017
S'EC:1'
p1018
asS'PF08392'
p1019
(lp1020
S'EC:2.3.1'
p1021
asS'TIGR04384'
p1022
(lp1023
S'EC:2.1.3.6'
p1024
asS'PF00383'
p1025
(lp1026
S'EC:3'
p1027
asS'PF06955'
p1028
(lp1029
S'EC:2.4.1.207'
p1030
asS'TIGR01162'
p1031
(lp1032
S'EC:4.1.1.21'
p1033
asS'TIGR01161'
p1034
(lp1035
S'EC:4.1.1.21'
p1036
asS'PF06951'
p1037
(lp1038
S'EC:3.1.1.4'
p1039
asS'PF02922'
p1040
(lp1041
S'EC:3.2.1'
p1042
asS'PF00389'
p1043
(lp1044
S'EC:1.1.1'
p1045
asS'TIGR01369'
p1046
(lp1047
S'EC:6.3.5.5'
p1048
asS'PF00479'
p1049
(lp1050
S'EC:1.1.1.49'
p1051
asS'TIGR04244'
p1052
(lp1053
S'EC:1.7.2.4'
p1054
asS'TIGR01361'
p1055
(lp1056
S'EC:2.5.1.54'
p1057
asS'TIGR01360'
p1058
(lp1059
S'EC:2.7.4.3'
p1060
asS'TIGR01362'
p1061
(lp1062
S'EC:2.5.1.55'
p1063
asS'TIGR01365'
p1064
(lp1065
S'EC:2.6.1.52'
p1066
asS'PF00475'
p1067
(lp1068
S'EC:4.2.1.19'
p1069
asS'TIGR01367'
p1070
(lp1071
S'EC:2.4.2.10'
p1072
asS'TIGR01366'
p1073
(lp1074
S'EC:2.6.1.52'
p1075
asS'TIGR04246'
p1076
(lp1077
S'EC:1.7.2.4'
p1078
asS'TIGR03689'
p1079
(lp1080
S'EC:3.6.4.8'
p1081
asS'PF04607'
p1082
(lp1083
S'EC:3.1.7.2'
p1084
asS'TIGR00415'
p1085
(lp1086
S'EC:6.1.1.11'
p1087
asS'TIGR02623'
p1088
(lp1089
S'EC:2.7.7.33'
p1090
asS'TIGR00417'
p1091
(lp1092
S'EC:2.5.1.16'
p1093
asS'TIGR00410'
p1094
(lp1095
S'EC:2.7.1.69'
p1096
asS'TIGR02624'
p1097
(lp1098
S'EC:4.1.2.19'
p1099
asS'TIGR02627'
p1100
(lp1101
S'EC:2.7.1.5'
p1102
asS'TIGR03296'
p1103
(lp1104
S'EC:3.4.24'
p1105
asS'PF07156'
p1106
(lp1107
S'EC:1.8.3.5'
p1108
asS'TIGR02628'
p1109
(lp1110
S'EC:2.7.1.51'
p1111
asS'TIGR00418'
p1112
(lp1113
S'EC:6.1.1.3'
p1114
asS'TIGR00419'
p1115
(lp1116
S'EC:5.3.1.1'
p1117
asS'PF04608'
p1118
(lp1119
S'EC:3.1.3.27'
p1120
asS'TIGR03294'
p1121
(lp1122
S'EC:1.12.98.1'
p1123
asS'TIGR00474'
p1124
(lp1125
S'EC:2.9.1.1'
p1126
asS'PF05826'
p1127
(lp1128
S'EC:3.1.1.4'
p1129
asS'TIGR03225'
p1130
(lp1131
S'EC:1.14.12.21'
p1132
asS'PF00274'
p1133
(lp1134
S'EC:4.1.2.13'
p1135
asS'PF00275'
p1136
(lp1137
S'EC:2.5.1'
p1138
asS'PF06821'
p1139
(lp1140
S'EC:3'
p1141
asS'TIGR03290'
p1142
(lp1143
S'EC:1.8.98.1'
p1144
asS'TIGR03447'
p1145
(lp1146
S'EC:6.3.1.13'
p1147
asS'PF05822'
p1148
(lp1149
S'EC:3.1.3.5'
p1150
asS'TIGR03445'
p1151
(lp1152
S'EC:3.5.1.103'
p1153
asS'TIGR00708'
p1154
(lp1155
S'EC:2.5.1.17'
p1156
asS'TIGR00709'
p1157
(lp1158
S'EC:2.6.1'
p1159
asS'PF08336'
p1160
(lp1161
S'EC:1.14.11.2'
p1162
asS'TIGR00700'
p1163
(lp1164
S'EC:2.6.1.19'
p1165
asS'TIGR00705'
p1166
(lp1167
S'EC:3.4'
p1168
asS'TIGR00706'
p1169
(lp1170
S'EC:3.4'
p1171
asS'PF03079'
p1172
(lp1173
S'EC:1.13.11.54'
p1174
asS'TIGR02534'
p1175
(lp1176
S'EC:5.5.1'
p1177
asS'TIGR03449'
p1178
(lp1179
S'EC:2.4.1.250'
p1180
asS'PF03071'
p1181
(lp1182
S'EC:2.4.1.101'
p1183
asS'TIGR02539'
p1184
(lp1185
S'EC:2.5.1.73'
p1186
asS'PF03074'
p1187
(lp1188
S'EC:6.3.2.2'
p1189
asS'TIGR00316'
p1190
(lp1191
S'EC:1.2.99.2'
p1192
aS'EC:2.3.1.169'
p1193
asS'PF14521'
p1194
(lp1195
S'EC:3.4.24'
p1196
asS'TIGR00314'
p1197
(lp1198
S'EC:1.2.99.2'
p1199
asS'TIGR02819'
p1200
(lp1201
S'EC:1.2.1.46'
p1202
asS'PF11910'
p1203
(lp1204
S'EC:1.6.5'
p1205
asS'TIGR01949'
p1206
(lp1207
S'EC:4.2.1'
p1208
asS'TIGR01941'
p1209
(lp1210
S'EC:1.6.5'
p1211
asS'TIGR01940'
p1212
(lp1213
S'EC:1.6.5'
p1214
asS'TIGR01942'
p1215
(lp1216
S'EC:2.7.7.19'
p1217
asS'PF12250'
p1218
(lp1219
S'EC:2.4'
p1220
asS'PF02253'
p1221
(lp1222
S'EC:3.1.1'
p1223
asS'PF02256'
p1224
(lp1225
S'EC:1.18.99.1'
p1226
asS'TIGR01582'
p1227
(lp1228
S'EC:1.2.1.2'
p1229
asS'TIGR03146'
p1230
(lp1231
S'EC:1.7.2.2'
p1232
asS'TIGR03143'
p1233
(lp1234
S'EC:1.6.4'
p1235
asS'TIGR03140'
p1236
(lp1237
S'EC:1.8.1'
p1238
asS'TIGR02441'
p1239
(lp1240
S'EC:4.2.1.17'
p1241
aS'EC:1.1.1.35'
p1242
asS'TIGR02440'
p1243
(lp1244
S'EC:4.2.1.17'
p1245
aS'EC:1.1.1.35'
p1246
aS'EC:5.1.2.3'
p1247
asS'TIGR02442'
p1248
(lp1249
S'EC:6.6.1.2'
p1250
asS'TIGR02445'
p1251
(lp1252
S'EC:2.3.1.16'
p1253
asS'TIGR03149'
p1254
(lp1255
S'EC:1.7.2.2'
p1256
asS'TIGR03148'
p1257
(lp1258
S'EC:1.7.2.2'
p1259
asS'TIGR04467'
p1260
(lp1261
S'EC:2.4.1'
p1262
asS'PF10462'
p1263
(lp1264
S'EC:3.4.24'
p1265
asS'TIGR00928'
p1266
(lp1267
S'EC:4.3.2.2'
p1268
asS'TIGR01196'
p1269
(lp1270
S'EC:4.2.1.12'
p1271
asS'PF03814'
p1272
(lp1273
S'EC:3.6.3.12'
p1274
asS'TIGR02146'
p1275
(lp1276
S'EC:2.3.3.14'
p1277
asS'TIGR02142'
p1278
(lp1279
S'EC:3.6.3.29'
p1280
asS'TIGR02143'
p1281
(lp1282
S'EC:2.1.1.35'
p1283
asS'PF05637'
p1284
(lp1285
S'EC:2.4'
p1286
asS'PF02654'
p1287
(lp1288
S'EC:2.7.8.26'
p1289
asS'TIGR01959'
p1290
(lp1291
S'EC:1.6.99.5'
p1292
asS'TIGR01893'
p1293
(lp1294
S'EC:3.4.13.20'
p1295
asS'PF03492'
p1296
(lp1297
S'EC:2.1.1'
p1298
asS'PF03490'
p1299
(lp1300
S'EC:4.6.1.14'
p1301
asS'PF02388'
p1302
(lp1303
S'EC:2.3.2'
p1304
asS'TIGR00962'
p1305
(lp1306
S'EC:3.6.3.14'
p1307
asS'PF03255'
p1308
(lp1309
S'EC:6.4.1.2'
p1310
asS'PF03254'
p1311
(lp1312
S'EC:2.4.1.69'
p1313
asS'PF03709'
p1314
(lp1315
S'EC:4.1.1'
p1316
asS'TIGR00968'
p1317
(lp1318
S'EC:3.6.3.25'
p1319
asS'PF02383'
p1320
(lp1321
S'EC:3.1'
p1322
asS'PF02384'
p1323
(lp1324
S'EC:2.1.1'
p1325
asS'PF03702'
p1326
(lp1327
S'EC:2.7.1'
p1328
asS'PF02386'
p1329
(lp1330
S'EC:3.6.1.34'
p1331
asS'TIGR03921'
p1332
(lp1333
S'EC:3.4.21'
p1334
asS'PF00933'
p1335
(lp1336
S'EC:3.2.1'
p1337
asS'TIGR02038'
p1338
(lp1339
S'EC:3.4.21'
p1340
asS'TIGR02039'
p1341
(lp1342
S'EC:2.7.7.4'
p1343
asS'TIGR02030'
p1344
(lp1345
S'EC:6.6.1.1'
p1346
asS'TIGR02031'
p1347
(lp1348
S'EC:6.6.1.1'
p1349
asS'TIGR02032'
p1350
(lp1351
S'EC:1.3.1'
p1352
asS'TIGR02033'
p1353
(lp1354
S'EC:3.5.2.2'
p1355
asS'TIGR02034'
p1356
(lp1357
S'EC:2.7.7.4'
p1358
asS'TIGR02035'
p1359
(lp1360
S'EC:4.3.1.18'
p1361
asS'TIGR02037'
p1362
(lp1363
S'EC:3.4.21'
p1364
asS'TIGR01767'
p1365
(lp1366
S'EC:2.7.1.100'
p1367
asS'PF02031'
p1368
(lp1369
S'EC:3.4.24'
p1370
asS'PF02036'
p1371
(lp1372
S'EC:1.1.1.62'
p1373
asS'TIGR01763'
p1374
(lp1375
S'EC:1.1.1.37'
p1376
asS'TIGR01769'
p1377
(lp1378
S'EC:2.5.1.41'
p1379
asS'PF01817'
p1380
(lp1381
S'EC:5.4.99.5'
p1382
asS'PF05706'
p1383
(lp1384
S'EC:3.1.3.16'
p1385
asS'TIGR03811'
p1386
(lp1387
S'EC:4.1.1.25'
p1388
asS'PF02812'
p1389
(lp1390
S'EC:1'
p1391
asS'TIGR03250'
p1392
(lp1393
S'EC:1.2.1'
p1394
asS'TIGR03814'
p1395
(lp1396
S'EC:3.5.1.2'
p1397
asS'PF02816'
p1398
(lp1399
S'EC:2.7.11'
p1400
asS'PF02817'
p1401
(lp1402
S'EC:2.3'
p1403
asS'TIGR03257'
p1404
(lp1405
S'EC:2.8.4.1'
p1406
asS'TIGR04516'
p1407
(lp1408
S'EC:2.4.1'
p1409
asS'TIGR00667'
p1410
(lp1411
S'EC:2.3.2.6'
p1412
asS'PF05090'
p1413
(lp1414
S'EC:4.1.1'
p1415
asS'TIGR01722'
p1416
(lp1417
S'EC:1.2.1.27'
p1418
asS'PF05096'
p1419
(lp1420
S'EC:2.3.2.5'
p1421
asS'TIGR01757'
p1422
(lp1423
S'EC:1.1.1.82'
p1424
asS'PF14099'
p1425
(lp1426
S'EC:4.2.2.7'
p1427
asS'TIGR03254'
p1428
(lp1429
S'EC:4.1.1.8'
p1430
asS'TIGR00552'
p1431
(lp1432
S'EC:6.3.1.5'
p1433
asS'TIGR02810'
p1434
(lp1435
S'EC:4.1.2.40'
p1436
asS'PF10590'
p1437
(lp1438
S'EC:1.4'
p1439
asS'TIGR01428'
p1440
(lp1441
S'EC:3.8.1.2'
p1442
asS'TIGR01429'
p1443
(lp1444
S'EC:3.5.4.6'
p1445
asS'TIGR01426'
p1446
(lp1447
S'EC:2.4.1'
p1448
asS'TIGR01424'
p1449
(lp1450
S'EC:1.8.1.7'
p1451
asS'TIGR01422'
p1452
(lp1453
S'EC:3.11.1.1'
p1454
asS'TIGR01423'
p1455
(lp1456
S'EC:1.8.1.12'
p1457
asS'TIGR01421'
p1458
(lp1459
S'EC:1.8.1.7'
p1460
asS'PF05416'
p1461
(lp1462
S'EC:3.4.22'
p1463
asS'PF05411'
p1464
(lp1465
S'EC:3.4'
p1466
asS'PF05410'
p1467
(lp1468
S'EC:3.4.22'
p1469
asS'PF01131'
p1470
(lp1471
S'EC:5.99.1'
p1472
asS'PF01136'
p1473
(lp1474
S'EC:3.4'
p1475
asS'PF10640'
p1476
(lp1477
S'EC:3.1.3.33'
p1478
asS'PF01135'
p1479
(lp1480
S'EC:2.1.1.77'
p1481
asS'PF05381'
p1482
(lp1483
S'EC:3.4.22'
p1484
asS'TIGR01819'
p1485
(lp1486
S'EC:2.7.8.28'
p1487
asS'PF02728'
p1488
(lp1489
S'EC:1.4.3.21'
p1490
asS'PF02729'
p1491
(lp1492
S'EC:2.1.3'
p1493
asS'PF02727'
p1494
(lp1495
S'EC:1.4.3.21'
p1496
asS'PF05388'
p1497
(lp1498
S'EC:3.4.16'
p1499
asS'TIGR02854'
p1500
(lp1501
S'EC:3.4.23'
p1502
asS'TIGR00380'
p1503
(lp1504
S'EC:6.3.1.10'
p1505
asS'TIGR00381'
p1506
(lp1507
S'EC:1.2.99.2'
p1508
asS'PF05891'
p1509
(lp1510
S'EC:2.1.1'
p1511
asS'PF05893'
p1512
(lp1513
S'EC:1.3.99.3'
p1514
asS'TIGR00388'
p1515
(lp1516
S'EC:6.1.1.14'
p1517
asS'TIGR00389'
p1518
(lp1519
S'EC:6.1.1.14'
p1520
asS'PF05896'
p1521
(lp1522
S'EC:1.6.5'
p1523
asS'PF01396'
p1524
(lp1525
S'EC:5.99.1'
p1526
asS'PF01397'
p1527
(lp1528
S'EC:4'
p1529
asS'TIGR00140'
p1530
(lp1531
S'EC:3.4.23'
p1532
asS'TIGR01390'
p1533
(lp1534
S'EC:3.1.4.16'
p1535
asS'TIGR00147'
p1536
(lp1537
S'EC:2.7.1'
p1538
asS'TIGR01392'
p1539
(lp1540
S'EC:2.3.1.31'
p1541
asS'TIGR01393'
p1542
(lp1543
S'EC:3.6.5'
p1544
asS'PF13673'
p1545
(lp1546
S'EC:2.3.1'
p1547
asS'TIGR00148'
p1548
(lp1549
S'EC:4.1.1'
p1550
asS'TIGR01553'
p1551
(lp1552
S'EC:1.1.5.6'
p1553
asS'PF01625'
p1554
(lp1555
S'EC:1.8.4'
p1556
asS'PF00719'
p1557
(lp1558
S'EC:3.6.1.1'
p1559
asS'TIGR01236'
p1560
(lp1561
S'EC:1.2.1.88'
p1562
asS'PF00867'
p1563
(lp1564
S'EC:3.1'
p1565
asS'PF00716'
p1566
(lp1567
S'EC:3.4.21'
p1568
asS'PF00863'
p1569
(lp1570
S'EC:3.4'
p1571
asS'TIGR04158'
p1572
(lp1573
S'EC:4.1'
p1574
asS'PF12131'
p1575
(lp1576
S'EC:3.4.22'
p1577
asS'PF08526'
p1578
(lp1579
S'EC:3.5.3.15'
p1580
asS'PF08527'
p1581
(lp1582
S'EC:3.5.3.15'
p1583
asS'PF08703'
p1584
(lp1585
S'EC:3.1.4.11'
p1586
asS'TIGR03540'
p1587
(lp1588
S'EC:2.6.1.83'
p1589
asS'TIGR03547'
p1590
(lp1591
S'EC:5.1'
p1592
asS'PF08707'
p1593
(lp1594
S'EC:3.6'
p1595
asS'PF08704'
p1596
(lp1597
S'EC:2.1.1'
p1598
asS'TIGR00055'
p1599
(lp1600
S'EC:2.5.1.31'
p1601
asS'PF04166'
p1602
(lp1603
S'EC:1.1.1.262'
p1604
asS'PF01400'
p1605
(lp1606
S'EC:3.4.24'
p1607
asS'PF01401'
p1608
(lp1609
S'EC:3.4.15'
p1610
asS'TIGR01088'
p1611
(lp1612
S'EC:4.2.1.10'
p1613
asS'TIGR01089'
p1614
(lp1615
S'EC:5.3.1.25'
p1616
asS'TIGR04063'
p1617
(lp1618
S'EC:2.4'
p1619
asS'TIGR02240'
p1620
(lp1621
S'EC:3.1.1'
p1622
asS'TIGR02962'
p1623
(lp1624
S'EC:3.5.2.17'
p1625
asS'TIGR01082'
p1626
(lp1627
S'EC:6.3.2.8'
p1628
asS'TIGR01083'
p1629
(lp1630
S'EC:4.2.99.18'
p1631
asS'TIGR01084'
p1632
(lp1633
S'EC:3.2.2'
p1634
asS'TIGR01086'
p1635
(lp1636
S'EC:4.1.2.17'
p1637
asS'TIGR01087'
p1638
(lp1639
S'EC:6.3.2.9'
p1640
asS'PF01712'
p1641
(lp1642
S'EC:2.7.1.21'
p1643
asS'PF08417'
p1644
(lp1645
S'EC:1.14.13.122'
p1646
asS'PF08414'
p1647
(lp1648
S'EC:1.6.3'
p1649
asS'PF01717'
p1650
(lp1651
S'EC:2.1.1.14'
p1652
asS'PF01243'
p1653
(lp1654
S'EC:1.4.3.5'
p1655
asS'TIGR04465'
p1656
(lp1657
S'EC:1'
p1658
asS'PF07943'
p1659
(lp1660
S'EC:3.4.16.4'
p1661
asS'PF01719'
p1662
(lp1663
S'EC:5.99.1'
p1664
asS'TIGR04461'
p1665
(lp1666
S'EC:2'
p1667
asS'PF07944'
p1668
(lp1669
S'EC:3.2.1.185'
p1670
asS'PF00667'
p1671
(lp1672
S'EC:1'
p1673
asS'TIGR04462'
p1674
(lp1675
S'EC:2'
p1676
asS'PF00044'
p1677
(lp1678
S'EC:1.2.1'
p1679
asS'TIGR02708'
p1680
(lp1681
S'EC:1.1.3'
p1682
asS'TIGR02709'
p1683
(lp1684
S'EC:2.3.1'
p1685
asS'TIGR02706'
p1686
(lp1687
S'EC:2.3.1.19'
p1688
asS'TIGR02707'
p1689
(lp1690
S'EC:2.7.2.7'
p1691
asS'TIGR02705'
p1692
(lp1693
S'EC:3.6.1'
p1694
asS'PF05199'
p1695
(lp1696
S'EC:1.1'
p1697
asS'PF04768'
p1698
(lp1699
S'EC:2.3.1.1'
p1700
asS'TIGR03907'
p1701
(lp1702
S'EC:1'
p1703
asS'TIGR00564'
p1704
(lp1705
S'EC:4.1.3.27'
p1706
asS'TIGR00565'
p1707
(lp1708
S'EC:4.1.3.27'
p1709
asS'TIGR00567'
p1710
(lp1711
S'EC:3.2.2'
p1712
asS'TIGR00560'
p1713
(lp1714
S'EC:2.7.8.5'
p1715
asS'TIGR00561'
p1716
(lp1717
S'EC:1.6.1.2'
p1718
asS'TIGR00562'
p1719
(lp1720
S'EC:1.3.3.4'
p1721
asS'TIGR00563'
p1722
(lp1723
S'EC:2.1.1.176'
p1724
asS'PF07492'
p1725
(lp1726
S'EC:3.2.1.28'
p1727
asS'TIGR03497'
p1728
(lp1729
S'EC:3.6.3.14'
p1730
asS'TIGR03496'
p1731
(lp1732
S'EC:3.6.3.14'
p1733
asS'PF00441'
p1734
(lp1735
S'EC:1.3'
p1736
asS'TIGR01179'
p1737
(lp1738
S'EC:5.1.3.2'
p1739
asS'TIGR01176'
p1740
(lp1741
S'EC:1.3.5.4'
p1742
asS'PF06941'
p1743
(lp1744
S'EC:3.1.3.5'
p1745
asS'TIGR03498'
p1746
(lp1747
S'EC:3.6.3.14'
p1748
asS'TIGR01172'
p1749
(lp1750
S'EC:2.3.1.30'
p1751
asS'TIGR01173'
p1752
(lp1753
S'EC:2.7.7.23'
p1754
aS'EC:2.3.1.157'
p1755
asS'PF07701'
p1756
(lp1757
S'EC:4.6.1.2'
p1758
asS'TIGR01379'
p1759
(lp1760
S'EC:2.7.4.16'
p1761
asS'PF07706'
p1762
(lp1763
S'EC:2.6.1.5'
p1764
asS'TIGR03224'
p1765
(lp1766
S'EC:1.14.12.21'
p1767
asS'TIGR01371'
p1768
(lp1769
S'EC:2.1.1.14'
p1770
asS'TIGR01231'
p1771
(lp1772
S'EC:2.7.1.144'
p1773
asS'TIGR01375'
p1774
(lp1775
S'EC:1.5.3.1'
p1776
asS'TIGR03235'
p1777
(lp1778
S'EC:2.8.1.7'
p1779
asS'TIGR03832'
p1780
(lp1781
S'EC:5.4.3.6'
p1782
asS'TIGR01263'
p1783
(lp1784
S'EC:1.13.11.27'
p1785
asS'TIGR02632'
p1786
(lp1787
S'EC:4.1.2.19'
p1788
aS'EC:1.1.1.1'
p1789
asS'TIGR02633'
p1790
(lp1791
S'EC:3.6.3.17'
p1792
asS'PF04616'
p1793
(lp1794
S'EC:3.2.1'
p1795
asS'TIGR02631'
p1796
(lp1797
S'EC:5.3.1.5'
p1798
asS'TIGR02636'
p1799
(lp1800
S'EC:5.1.3.3'
p1801
asS'PF04613'
p1802
(lp1803
S'EC:2.3.1'
p1804
asS'TIGR02638'
p1805
(lp1806
S'EC:1.1.1.77'
p1807
asS'TIGR01230'
p1808
(lp1809
S'EC:3.5.3.11'
p1810
asS'TIGR01507'
p1811
(lp1812
S'EC:5.4.99.17'
p1813
asS'TIGR03724'
p1814
(lp1815
S'EC:2.7'
p1816
asS'PF06833'
p1817
(lp1818
S'EC:6'
p1819
asS'PF06831'
p1820
(lp1821
S'EC:3.2.2'
p1822
asS'TIGR04283'
p1823
(lp1824
S'EC:2'
p1825
asS'TIGR04282'
p1826
(lp1827
S'EC:2'
p1828
asS'TIGR04284'
p1829
(lp1830
S'EC:1.2.1'
p1831
asS'TIGR04287'
p1832
(lp1833
S'EC:3.4.22'
p1834
asS'PF07831'
p1835
(lp1836
S'EC:2.4.2'
p1837
asS'PF07830'
p1838
(lp1839
S'EC:3.1.3.16'
p1840
asS'PF07837'
p1841
(lp1842
S'EC:2'
p1843
asS'PF07836'
p1844
(lp1845
S'EC:4.1.3'
p1846
asS'PF00285'
p1847
(lp1848
S'EC:2.3.3'
p1849
asS'PF00282'
p1850
(lp1851
S'EC:4.1.1'
p1852
asS'TIGR03994'
p1853
(lp1854
S'EC:1.3.99.22'
p1855
asS'TIGR00359'
p1856
(lp1857
S'EC:2.7.1.69'
p1858
asS'TIGR01463'
p1859
(lp1860
S'EC:2.1.1'
p1861
asS'PF06617'
p1862
(lp1863
S'EC:3.1.3.48'
p1864
asS'PF00391'
p1865
(lp1866
S'EC:2.7'
p1867
asS'PF03065'
p1868
(lp1869
S'EC:3.2.1.1'
p1870
asS'PF03063'
p1871
(lp1872
S'EC:1'
p1873
asS'PF03060'
p1874
(lp1875
S'EC:1.13.11.32'
p1876
asS'PF03061'
p1877
(lp1878
S'EC:3.1.2.23'
p1879
asS'TIGR00777'
p1880
(lp1881
S'EC:1.11.1.15'
p1882
asS'PF03068'
p1883
(lp1884
S'EC:3.5.3.15'
p1885
asS'PF03069'
p1886
(lp1887
S'EC:3.5.1.49'
p1888
asS'TIGR03037'
p1889
(lp1890
S'EC:1.13.11.6'
p1891
asS'TIGR03036'
p1892
(lp1893
S'EC:1.13.11.11'
p1894
asS'TIGR03035'
p1895
(lp1896
S'EC:3.5.1.9'
p1897
asS'TIGR03031'
p1898
(lp1899
S'EC:3.1'
p1900
asS'TIGR03030'
p1901
(lp1902
S'EC:2.4.1.12'
p1903
asS'PF06725'
p1904
(lp1905
S'EC:3.2.1'
p1906
asS'PF11909'
p1907
(lp1908
S'EC:1.6.5'
p1909
asS'PF05292'
p1910
(lp1911
S'EC:4.1.1.9'
p1912
asS'PF12241'
p1913
(lp1914
S'EC:1.3.1.44'
p1915
asS'PF12242'
p1916
(lp1917
S'EC:1.3.1.44'
p1918
asS'TIGR03150'
p1919
(lp1920
S'EC:2.3.1.179'
p1921
asS'PF12249'
p1922
(lp1923
S'EC:2.4'
p1924
asS'PF06052'
p1925
(lp1926
S'EC:1.13.11.6'
p1927
asS'TIGR03153'
p1928
(lp1929
S'EC:1.7.2.2'
p1930
asS'PF03662'
p1931
(lp1932
S'EC:3.2'
p1933
asS'PF03664'
p1934
(lp1935
S'EC:3.2.1.55'
p1936
asS'TIGR00604'
p1937
(lp1938
S'EC:3.6.4'
p1939
asS'TIGR00609'
p1940
(lp1941
S'EC:3.1.11.5'
p1942
asS'TIGR02456'
p1943
(lp1944
S'EC:5.4.99.16'
p1945
asS'TIGR02455'
p1946
(lp1947
S'EC:5.4.99.16'
p1948
asS'PF10410'
p1949
(lp1950
S'EC:2.7.7'
p1951
asS'PF10417'
p1952
(lp1953
S'EC:1.11.1.15'
p1954
asS'PF10415'
p1955
(lp1956
S'EC:4'
p1957
asS'TIGR03326'
p1958
(lp1959
S'EC:4.1.1.39'
p1960
asS'TIGR00498'
p1961
(lp1962
S'EC:3.4.21.88'
p1963
asS'TIGR03325'
p1964
(lp1965
S'EC:1.3.1.56'
p1966
asS'PF02627'
p1967
(lp1968
S'EC:4.1.1.44'
p1969
asS'TIGR02083'
p1970
(lp1971
S'EC:4.2.1.33'
p1972
asS'TIGR03322'
p1973
(lp1974
S'EC:3.6.3'
p1975
asS'TIGR01880'
p1976
(lp1977
S'EC:3.5.1.14'
p1978
asS'TIGR01882'
p1979
(lp1980
S'EC:3.4.11'
p1981
asS'TIGR02082'
p1982
(lp1983
S'EC:2.1.1.13'
p1984
asS'PF15461'
p1985
(lp1986
S'EC:1.13.11'
p1987
asS'TIGR01885'
p1988
(lp1989
S'EC:2.6.1.13'
p1990
asS'TIGR01886'
p1991
(lp1992
S'EC:3.4.13'
p1993
asS'TIGR01887'
p1994
(lp1995
S'EC:3.4.13'
p1996
asS'TIGR02085'
p1997
(lp1998
S'EC:2.1.1.189'
p1999
asS'PF02628'
p2000
(lp2001
S'EC:1.3'
p2002
asS'TIGR00401'
p2003
(lp2004
S'EC:1.8.4.11'
p2005
asS'TIGR02084'
p2006
(lp2007
S'EC:4.2.1.33'
p2008
asS'TIGR00854'
p2009
(lp2010
S'EC:2.7.1.69'
p2011
asS'PF03718'
p2012
(lp2013
S'EC:3.2.1.57'
p2014
asS'PF02543'
p2015
(lp2016
S'EC:2.1.3.7'
p2017
asS'PF03710'
p2018
(lp2019
S'EC:2.7.7.42'
p2020
asS'PF03243'
p2021
(lp2022
S'EC:4.99.1.2'
p2023
asS'TIGR03937'
p2024
(lp2025
S'EC:2.4.1'
p2026
asS'PF03936'
p2027
(lp2028
S'EC:4'
p2029
asS'TIGR03935'
p2030
(lp2031
S'EC:3.4.24.74'
p2032
asS'TIGR03933'
p2033
(lp2034
S'EC:3.5.1'
p2035
asS'TIGR04059'
p2036
(lp2037
S'EC:4.1.99.5'
p2038
asS'TIGR01238'
p2039
(lp2040
S'EC:1.2.1.88'
p2041
asS'TIGR03938'
p2042
(lp2043
S'EC:3.5.1'
p2044
asS'TIGR00851'
p2045
(lp2046
S'EC:2.7.1.69'
p2047
asS'TIGR03430'
p2048
(lp2049
S'EC:2.5.1.34'
p2050
asS'TIGR02049'
p2051
(lp2052
S'EC:6.3.2.2'
p2053
asS'TIGR02048'
p2054
(lp2055
S'EC:6.3.2.2'
p2056
asS'TIGR02045'
p2057
(lp2058
S'EC:2.7.1.146'
p2059
asS'TIGR03328'
p2060
(lp2061
S'EC:4.2'
p2062
asS'TIGR02041'
p2063
(lp2064
S'EC:1.8.1.2'
p2065
asS'PF04509'
p2066
(lp2067
S'EC:3'
p2068
asS'TIGR02289'
p2069
(lp2070
S'EC:3.4.24'
p2071
asS'TIGR01772'
p2072
(lp2073
S'EC:1.1.1.37'
p2074
asS'TIGR04427'
p2075
(lp2076
S'EC:2'
p2077
asS'TIGR01771'
p2078
(lp2079
S'EC:1.1.1.27'
p2080
asS'TIGR02283'
p2081
(lp2082
S'EC:2.4'
p2083
asS'TIGR02282'
p2084
(lp2085
S'EC:2.4'
p2086
asS'TIGR02281'
p2087
(lp2088
S'EC:3.4.23'
p2089
asS'TIGR02280'
p2090
(lp2091
S'EC:4.2.1.17'
p2092
asS'PF08841'
p2093
(lp2094
S'EC:4.2.1.30'
p2095
asS'PF02283'
p2096
(lp2097
S'EC:2.7.1.156'
p2098
asS'TIGR03801'
p2099
(lp2100
S'EC:4.1.1.12'
p2101
asS'PF08845'
p2102
(lp2103
S'EC:3.1'
p2104
asS'PF02284'
p2105
(lp2106
S'EC:1.9.3.1'
p2107
asS'PF02538'
p2108
(lp2109
S'EC:3.5.2.9'
p2110
asS'PF02289'
p2111
(lp2112
S'EC:3.5.4.27'
p2113
asS'PF12062'
p2114
(lp2115
S'EC:3'
p2116
asS'PF12063'
p2117
(lp2118
S'EC:2.7.11'
p2119
asS'PF09668'
p2120
(lp2121
S'EC:3.4.23'
p2122
asS'TIGR00826'
p2123
(lp2124
S'EC:2.7.1.69'
p2125
asS'PF05088'
p2126
(lp2127
S'EC:1.4.1.2'
p2128
asS'TIGR03704'
p2129
(lp2130
S'EC:2.1.1'
p2131
asS'TIGR03162'
p2132
(lp2133
S'EC:3.1.3.73'
p2134
asS'TIGR01417'
p2135
(lp2136
S'EC:2.7.3.9'
p2137
asS'TIGR01416'
p2138
(lp2139
S'EC:1.10.2.2'
p2140
asS'TIGR01418'
p2141
(lp2142
S'EC:2.7.9.2'
p2143
asS'PF13506'
p2144
(lp2145
S'EC:2.4.1.80'
p2146
asS'PF05153'
p2147
(lp2148
S'EC:1.13.99.1'
p2149
asS'PF05407'
p2150
(lp2151
S'EC:3.4.22'
p2152
asS'PF00910'
p2153
(lp2154
S'EC:2.7.7'
p2155
asS'PF05408'
p2156
(lp2157
S'EC:3.4.22'
p2158
asS'PF10637'
p2159
(lp2160
S'EC:1.14.11'
p2161
asS'PF05392'
p2162
(lp2163
S'EC:1.9.3.1'
p2164
asS'TIGR00357'
p2165
(lp2166
S'EC:1.8.4'
p2167
asS'TIGR02199'
p2168
(lp2169
S'EC:2.7.7'
p2170
asS'TIGR02198'
p2171
(lp2172
S'EC:2.7.1'
p2173
asS'TIGR02197'
p2174
(lp2175
S'EC:5.1.3.20'
p2176
asS'TIGR02195'
p2177
(lp2178
S'EC:2.4'
p2179
asS'TIGR02193'
p2180
(lp2181
S'EC:2.4'
p2182
asS'TIGR02191'
p2183
(lp2184
S'EC:3.1.26.3'
p2185
asS'TIGR00024'
p2186
(lp2187
S'EC:3.1'
p2188
asS'TIGR00027'
p2189
(lp2190
S'EC:2.1.1'
p2191
asS'PF04378'
p2192
(lp2193
S'EC:2.1.1'
p2194
asS'PF04377'
p2195
(lp2196
S'EC:2.3.2.8'
p2197
asS'PF04376'
p2198
(lp2199
S'EC:2.3.2.8'
p2200
asS'PF04371'
p2201
(lp2202
S'EC:3.5.3.15'
p2203
asS'TIGR02798'
p2204
(lp2205
S'EC:4.1'
p2206
aS'EC:4.1.1.3'
p2207
asS'TIGR00175'
p2208
(lp2209
S'EC:1.1.1.41'
p2210
asS'TIGR00174'
p2211
(lp2212
S'EC:2.5.1.75'
p2213
asS'TIGR00173'
p2214
(lp2215
S'EC:2.2.1.9'
p2216
asS'TIGR00171'
p2217
(lp2218
S'EC:4.2.1.33'
p2219
asS'TIGR00170'
p2220
(lp2221
S'EC:4.2.1.33'
p2222
asS'PF09396'
p2223
(lp2224
S'EC:3.4.21'
p2225
asS'TIGR00179'
p2226
(lp2227
S'EC:1.3.1.98'
p2228
asS'TIGR00178'
p2229
(lp2230
S'EC:1.1.1.42'
p2231
asS'PF00709'
p2232
(lp2233
S'EC:6.3.4.4'
p2234
asS'PF11698'
p2235
(lp2236
S'EC:3.6.3'
p2237
asS'PF00703'
p2238
(lp2239
S'EC:3.2.1'
p2240
asS'PF00701'
p2241
(lp2242
S'EC:4'
p2243
asS'PF00871'
p2244
(lp2245
S'EC:2.7.2'
p2246
asS'PF00704'
p2247
(lp2248
S'EC:3.2.1'
p2249
asS'PF01095'
p2250
(lp2251
S'EC:3.1.1.11'
p2252
asS'TIGR02993'
p2253
(lp2254
S'EC:3'
p2255
asS'PF05578'
p2256
(lp2257
S'EC:3.4.21'
p2258
asS'PF05579'
p2259
(lp2260
S'EC:3.4.21'
p2261
asS'TIGR03554'
p2262
(lp2263
S'EC:1.1.98.2'
p2264
asS'TIGR03555'
p2265
(lp2266
S'EC:1.5.98.2'
p2267
asS'TIGR03556'
p2268
(lp2269
S'EC:4.1.99.3'
p2270
asS'PF05971'
p2271
(lp2272
S'EC:2.1.1'
p2273
asS'TIGR03550'
p2274
(lp2275
S'EC:2.5.1.77'
p2276
asS'TIGR03551'
p2277
(lp2278
S'EC:2.5.1.77'
p2279
asS'TIGR03552'
p2280
(lp2281
S'EC:2.7.7.68'
p2282
asS'PF08267'
p2283
(lp2284
S'EC:2.1.1.14'
p2285
asS'TIGR00286'
p2286
(lp2287
S'EC:4.1.1.19'
p2288
asS'TIGR03558'
p2289
(lp2290
S'EC:1'
p2291
asS'PF04116'
p2292
(lp2293
S'EC:1'
p2294
asS'PF04115'
p2295
(lp2296
S'EC:3.5.3.19'
p2297
asS'PF01474'
p2298
(lp2299
S'EC:2.5.1.54'
p2300
asS'TIGR04070'
p2301
(lp2302
S'EC:4.1.99.14'
p2303
asS'TIGR04074'
p2304
(lp2305
S'EC:2.1.1'
p2306
asS'PF08064'
p2307
(lp2308
S'EC:2.7.11'
p2309
asS'PF08063'
p2310
(lp2311
S'EC:2.4.2.30'
p2312
asS'PF08061'
p2313
(lp2314
S'EC:3.6.1'
p2315
asS'TIGR00183'
p2316
(lp2317
S'EC:1.1.1.42'
p2318
asS'PF00676'
p2319
(lp2320
S'EC:1.2.4'
p2321
asS'PF07955'
p2322
(lp2323
S'EC:1'
p2324
asS'PF07952'
p2325
(lp2326
S'EC:3.4.24'
p2327
asS'PF07953'
p2328
(lp2329
S'EC:3.4.24'
p2330
asS'PF07959'
p2331
(lp2332
S'EC:2.7'
p2333
asS'PF01270'
p2334
(lp2335
S'EC:3.2.1'
p2336
asS'PF01274'
p2337
(lp2338
S'EC:2.3.3.9'
p2339
asS'PF08465'
p2340
(lp2341
S'EC:2.7.1.21'
p2342
asS'PF05881'
p2343
(lp2344
S'EC:3.1.4.37'
p2345
asS'TIGR04476'
p2346
(lp2347
S'EC:3.4.22'
p2348
asS'PF04574'
p2349
(lp2350
S'EC:3.5.1'
p2351
asS'PF08469'
p2352
(lp2353
S'EC:3.6.1.15'
p2354
asS'PF08468'
p2355
(lp2356
S'EC:2.1.1.52'
p2357
asS'TIGR02866'
p2358
(lp2359
S'EC:1.9.3.1'
p2360
asS'PF04573'
p2361
(lp2362
S'EC:3.4'
p2363
asS'PF05889'
p2364
(lp2365
S'EC:2'
p2366
asS'TIGR02733'
p2367
(lp2368
S'EC:1.3.99'
p2369
asS'PF01506'
p2370
(lp2371
S'EC:3.4.21'
p2372
asS'TIGR02731'
p2373
(lp2374
S'EC:1.14.99'
p2375
asS'PF01504'
p2376
(lp2377
S'EC:2.7.1'
p2378
asS'PF01502'
p2379
(lp2380
S'EC:3.5.4.19'
p2381
asS'PF01501'
p2382
(lp2383
S'EC:2.4'
p2384
asS'TIGR02734'
p2385
(lp2386
S'EC:1.14.99'
p2387
asS'PF00056'
p2388
(lp2389
S'EC:1'
p2390
asS'PF04029'
p2391
(lp2392
S'EC:3.1.3.71'
p2393
asS'PF04597'
p2394
(lp2395
S'EC:2.4.1.119'
p2396
asS'TIGR00593'
p2397
(lp2398
S'EC:2.7.7.7'
p2399
asS'TIGR00592'
p2400
(lp2401
S'EC:2.7.7.7'
p2402
asS'TIGR00595'
p2403
(lp2404
S'EC:3.6.1'
p2405
asS'TIGR00594'
p2406
(lp2407
S'EC:2.7.7.7'
p2408
asS'TIGR00189'
p2409
(lp2410
S'EC:3.1.2'
p2411
asS'TIGR01181'
p2412
(lp2413
S'EC:4.2.1.46'
p2414
asS'PF04210'
p2415
(lp2416
S'EC:2.1.1.86'
p2417
asS'PF00450'
p2418
(lp2419
S'EC:3.4.16'
p2420
asS'TIGR01182'
p2421
(lp2422
S'EC:4.1.2.14'
p2423
aS'EC:4.1.3.16'
p2424
asS'PF00456'
p2425
(lp2426
S'EC:2.2.1.1'
p2427
asS'PF00457'
p2428
(lp2429
S'EC:3.2.1'
p2430
asS'PF07486'
p2431
(lp2432
S'EC:3'
p2433
asS'TIGR00358'
p2434
(lp2435
S'EC:3.1.13.1'
p2436
asS'PF07488'
p2437
(lp2438
S'EC:3.2.1.139'
p2439
asS'TIGR00355'
p2440
(lp2441
S'EC:2.1.2.3'
p2442
aS'EC:3.5.4.10'
p2443
asS'TIGR00354'
p2444
(lp2445
S'EC:2.7.7.7'
p2446
asS'PF01219'
p2447
(lp2448
S'EC:2.7.1.107'
p2449
asS'TIGR00351'
p2450
(lp2451
S'EC:1.7.99.4'
p2452
asS'PF07711'
p2453
(lp2454
S'EC:2.5.1.60'
p2455
asS'TIGR02882'
p2456
(lp2457
S'EC:1.10.3'
p2458
asS'TIGR00422'
p2459
(lp2460
S'EC:6.1.1.9'
p2461
asS'TIGR01349'
p2462
(lp2463
S'EC:2.3.1.12'
p2464
asS'TIGR01348'
p2465
(lp2466
S'EC:2.3.1.12'
p2467
asS'TIGR01347'
p2468
(lp2469
S'EC:2.3.1.61'
p2470
asS'TIGR01346'
p2471
(lp2472
S'EC:4.1.3.1'
p2473
asS'TIGR01345'
p2474
(lp2475
S'EC:2.3.3.9'
p2476
asS'TIGR02042'
p2477
(lp2478
S'EC:1.8.7.1'
p2479
asS'TIGR01342'
p2480
(lp2481
S'EC:4.2.1.3'
p2482
asS'TIGR01341'
p2483
(lp2484
S'EC:4.2.1.3'
p2485
asS'TIGR01340'
p2486
(lp2487
S'EC:4.2.1.3'
p2488
asS'TIGR04274'
p2489
(lp2490
S'EC:3.2.2.15'
p2491
asS'PF06449'
p2492
(lp2493
S'EC:3.6.3'
p2494
asS'PF06444'
p2495
(lp2496
S'EC:1.6.5.3'
p2497
asS'PF06442'
p2498
(lp2499
S'EC:1.5.1.3'
p2500
asS'PF06441'
p2501
(lp2502
S'EC:3.3.2.3'
p2503
asS'TIGR04109'
p2504
(lp2505
S'EC:1.14.99.3'
p2506
asS'TIGR02602'
p2507
(lp2508
S'EC:3.4.22'
p2509
asS'PF01212'
p2510
(lp2511
S'EC:4'
p2512
asS'PF07137'
p2513
(lp2514
S'EC:1.10.99.3'
p2515
asS'PF00752'
p2516
(lp2517
S'EC:3.1'
p2518
asS'TIGR03219'
p2519
(lp2520
S'EC:1.14.13.1'
p2521
asS'TIGR04458'
p2522
(lp2523
S'EC:1'
p2524
asS'PF06849'
p2525
(lp2526
S'EC:6.3'
p2527
asS'TIGR04291'
p2528
(lp2529
S'EC:3.6.1'
p2530
asS'TIGR00874'
p2531
(lp2532
S'EC:2.2.1.2'
p2533
asS'PF07826'
p2534
(lp2535
S'EC:3.5.4.10'
p2536
asS'PF00295'
p2537
(lp2538
S'EC:3.2.1.15'
p2539
asS'PF00296'
p2540
(lp2541
S'EC:1.14'
p2542
asS'PF00290'
p2543
(lp2544
S'EC:4.2.1.20'
p2545
asS'PF00291'
p2546
(lp2547
S'EC:4.2.99.2'
p2548
asS'PF07821'
p2549
(lp2550
S'EC:3.2.1.1'
p2551
asS'PF06662'
p2552
(lp2553
S'EC:5.1.3'
p2554
asS'PF01896'
p2555
(lp2556
S'EC:2.7.7'
p2557
asS'TIGR01672'
p2558
(lp2559
S'EC:3.1.3'
p2560
asS'PF07224'
p2561
(lp2562
S'EC:3.1.1.14'
p2563
asS'PF07225'
p2564
(lp2565
S'EC:1.6.5.3'
p2566
asS'TIGR02518'
p2567
(lp2568
S'EC:1.2.1.10'
p2569
asS'PF07221'
p2570
(lp2571
S'EC:5.3.1.8'
p2572
asS'TIGR00768'
p2573
(lp2574
S'EC:6.3.2'
p2575
asS'TIGR00657'
p2576
(lp2577
S'EC:2.7.2.4'
p2578
asS'TIGR02512'
p2579
(lp2580
S'EC:1.12'
p2581
asS'TIGR04277'
p2582
(lp2583
S'EC:4.2.1.123'
p2584
asS'TIGR02510'
p2585
(lp2586
S'EC:1.17.4.1'
p2587
asS'PF07228'
p2588
(lp2589
S'EC:3.1.3.16'
p2590
asS'TIGR00763'
p2591
(lp2592
S'EC:3.4.21.53'
p2593
asS'TIGR00760'
p2594
(lp2595
S'EC:5.1.3.4'
p2596
asS'TIGR00761'
p2597
(lp2598
S'EC:2.7.2.8'
p2599
asS'TIGR00829'
p2600
(lp2601
S'EC:2.7.1.69'
p2602
asS'TIGR03022'
p2603
(lp2604
S'EC:2.7.8.6'
p2605
asS'TIGR03023'
p2606
(lp2607
S'EC:2.7.8'
p2608
asS'PF00293'
p2609
(lp2610
S'EC:3'
p2611
asS'TIGR00652'
p2612
(lp2613
S'EC:5.1.1.7'
p2614
asS'TIGR02806'
p2615
(lp2616
S'EC:3.4.22.8'
p2617
asS'TIGR03800'
p2618
(lp2619
S'EC:2.6'
p2620
asS'TIGR00653'
p2621
(lp2622
S'EC:6.3.1.2'
p2623
asS'TIGR04428'
p2624
(lp2625
S'EC:2.1.1.106'
p2626
asS'PF02285'
p2627
(lp2628
S'EC:1.9.3.1'
p2629
asS'PF06280'
p2630
(lp2631
S'EC:3.4.21'
p2632
asS'TIGR01962'
p2633
(lp2634
S'EC:1.6.99.5'
p2635
asS'TIGR01967'
p2636
(lp2637
S'EC:3.6.4.13'
p2638
asS'TIGR01966'
p2639
(lp2640
S'EC:2.7.7.56'
p2641
asS'TIGR00716'
p2642
(lp2643
S'EC:3.1.26.4'
p2644
asS'PF11973'
p2645
(lp2646
S'EC:1.6.5'
p2647
asS'PF02286'
p2648
(lp2649
S'EC:4.2.1.28'
p2650
asS'PF11975'
p2651
(lp2652
S'EC:3.2.1'
p2653
asS'TIGR00821'
p2654
(lp2655
S'EC:2.7.1.69'
p2656
asS'TIGR03129'
p2657
(lp2658
S'EC:1.2.99.5'
p2659
asS'TIGR03128'
p2660
(lp2661
S'EC:4.1.2.43'
p2662
asS'TIGR03125'
p2663
(lp2664
S'EC:2.4.2.52'
p2665
asS'TIGR03124'
p2666
(lp2667
S'EC:2.7.7.61'
p2668
asS'TIGR03127'
p2669
(lp2670
S'EC:5.3'
p2671
asS'TIGR03121'
p2672
(lp2673
S'EC:1.2.99.5'
p2674
asS'PF12270'
p2675
(lp2676
S'EC:1.9.3.1'
p2677
asS'TIGR03122'
p2678
(lp2679
S'EC:1.2.99.5'
p2680
asS'TIGR00612'
p2681
(lp2682
S'EC:1.17.7.1'
p2683
asS'TIGR02469'
p2684
(lp2685
S'EC:2.1.1.132'
p2686
asS'TIGR02468'
p2687
(lp2688
S'EC:2.4.1.14'
p2689
asS'TIGR02467'
p2690
(lp2691
S'EC:2.1.1.132'
p2692
asS'PF12474'
p2693
(lp2694
S'EC:2.7.11'
p2695
asS'TIGR02463'
p2696
(lp2697
S'EC:3.1.3'
p2698
asS'TIGR02462'
p2699
(lp2700
S'EC:1.1.3.10'
p2701
asS'PF03121'
p2702
(lp2703
S'EC:2.7.7'
p2704
asS'TIGR00824'
p2705
(lp2706
S'EC:2.7.1.69'
p2707
asS'TIGR03011'
p2708
(lp2709
S'EC:2.8'
p2710
asS'PF08218'
p2711
(lp2712
S'EC:6.2.1.22'
p2713
asS'TIGR00239'
p2714
(lp2715
S'EC:1.2.4.2'
p2716
asS'PF11803'
p2717
(lp2718
S'EC:4.1.1.35'
p2719
asS'PF11808'
p2720
(lp2721
S'EC:2.7.13.3'
p2722
asS'TIGR00234'
p2723
(lp2724
S'EC:6.1.1.1'
p2725
asS'TIGR00235'
p2726
(lp2727
S'EC:2.7.1.48'
p2728
asS'TIGR00236'
p2729
(lp2730
S'EC:5.1.3.14'
p2731
asS'TIGR03231'
p2732
(lp2733
S'EC:1.14.12.1'
p2734
asS'TIGR03230'
p2735
(lp2736
S'EC:3.1.1.34'
p2737
asS'PF13199'
p2738
(lp2739
S'EC:3.2.1.11'
p2740
asS'PF02633'
p2741
(lp2742
S'EC:3.5.2.10'
p2743
asS'PF02634'
p2744
(lp2745
S'EC:2.8.1'
p2746
asS'PF01872'
p2747
(lp2748
S'EC:1.1.1.193'
p2749
asS'PF02637'
p2750
(lp2751
S'EC:6.3.5'
p2752
asS'TIGR03239'
p2753
(lp2754
S'EC:4.1.2.20'
p2755
asS'PF03721'
p2756
(lp2757
S'EC:1.1.1'
p2758
asS'PF03720'
p2759
(lp2760
S'EC:1.1.1'
p2761
asS'PF12581'
p2762
(lp2763
S'EC:3.6'
p2764
asS'TIGR00656'
p2765
(lp2766
S'EC:2.7.2.4'
p2767
asS'PF03727'
p2768
(lp2769
S'EC:2.7.1.1'
p2770
asS'PF03901'
p2771
(lp2772
S'EC:2.4'
p2773
asS'PF03900'
p2774
(lp2775
S'EC:2.5.1.61'
p2776
asS'PF05761'
p2777
(lp2778
S'EC:3.1.3.5'
p2779
asS'TIGR01748'
p2780
(lp2781
S'EC:5.3.1.14'
p2782
asS'TIGR02056'
p2783
(lp2784
S'EC:2.5.1.62'
p2785
asS'TIGR02057'
p2786
(lp2787
S'EC:1.8.4.8'
p2788
asS'TIGR01740'
p2789
(lp2790
S'EC:4.1.1.23'
p2791
asS'TIGR01747'
p2792
(lp2793
S'EC:4.3.1.15'
p2794
asS'TIGR02053'
p2795
(lp2796
S'EC:1.16.1.1'
p2797
asS'TIGR01745'
p2798
(lp2799
S'EC:1.2.1.11'
p2800
asS'TIGR01744'
p2801
(lp2802
S'EC:2.4.2.22'
p2803
asS'TIGR01989'
p2804
(lp2805
S'EC:1.14.13'
p2806
asS'TIGR01988'
p2807
(lp2808
S'EC:1.14.13'
p2809
asS'TIGR02298'
p2810
(lp2811
S'EC:1.13.11.15'
p2812
asS'TIGR02299'
p2813
(lp2814
S'EC:1.2.1.60'
p2815
asS'TIGR02295'
p2816
(lp2817
S'EC:1.13.11.15'
p2818
asS'TIGR02296'
p2819
(lp2820
S'EC:1.14.14.9'
p2821
asS'TIGR01982'
p2822
(lp2823
S'EC:1.14.13'
p2824
asS'TIGR02290'
p2825
(lp2826
S'EC:3.4.24'
p2827
asS'TIGR01984'
p2828
(lp2829
S'EC:1.14.13'
p2830
asS'TIGR01986'
p2831
(lp2832
S'EC:6.3.2.3'
p2833
asS'PF03345'
p2834
(lp2835
S'EC:2.4.1.119'
p2836
asS'PF02839'
p2837
(lp2838
S'EC:3.2.1'
p2839
asS'TIGR00856'
p2840
(lp2841
S'EC:3.5.2.3'
p2842
asS'PF03830'
p2843
(lp2844
S'EC:2.7.1.69'
p2845
asS'PF02525'
p2846
(lp2847
S'EC:3.1.4.14'
p2848
asS'PF02527'
p2849
(lp2850
S'EC:2.1.1'
p2851
asS'PF02836'
p2852
(lp2853
S'EC:3.2.1'
p2854
asS'PF02837'
p2855
(lp2856
S'EC:3.2.1'
p2857
asS'PF02522'
p2858
(lp2859
S'EC:2.3.1.81'
p2860
asS'TIGR03838'
p2861
(lp2862
S'EC:6.1.1'
p2863
asS'TIGR01040'
p2864
(lp2865
S'EC:3.6.3.14'
p2866
asS'TIGR00191'
p2867
(lp2868
S'EC:2.7.1.39'
p2869
asS'TIGR01405'
p2870
(lp2871
S'EC:2.7.7.7'
p2872
asS'TIGR01406'
p2873
(lp2874
S'EC:2.7.7.7'
p2875
asS'PF04962'
p2876
(lp2877
S'EC:5.3.1.17'
p2878
asS'TIGR01042'
p2879
(lp2880
S'EC:3.6.3.14'
p2881
asS'PF04960'
p2882
(lp2883
S'EC:3.5.1.2'
p2884
asS'PF04961'
p2885
(lp2886
S'EC:4.3.1.4'
p2887
asS'TIGR02261'
p2888
(lp2889
S'EC:1.3.7.8'
p2890
asS'PF10620'
p2891
(lp2892
S'EC:2.7.7'
p2893
asS'PF00908'
p2894
(lp2895
S'EC:5.1.3.13'
p2896
asS'PF04137'
p2897
(lp2898
S'EC:1.8.4'
p2899
asS'PF02749'
p2900
(lp2901
S'EC:2.4.2.19'
p2902
asS'PF12123'
p2903
(lp2904
S'EC:3.5.1.28'
p2905
asS'PF12122'
p2906
(lp2907
S'EC:3.4.21'
p2908
asS'PF12124'
p2909
(lp2910
S'EC:3.6'
p2911
asS'PF05369'
p2912
(lp2913
S'EC:2.1.1'
p2914
asS'TIGR02188'
p2915
(lp2916
S'EC:6.2.1.1'
p2917
asS'PF02741'
p2918
(lp2919
S'EC:2.3.1.101'
p2920
asS'TIGR03900'
p2921
(lp2922
S'EC:3.4.21'
p2923
asS'PF02744'
p2924
(lp2925
S'EC:2.7.7.12'
p2926
asS'PF02745'
p2927
(lp2928
S'EC:2.8.4.1'
p2929
asS'TIGR01320'
p2930
(lp2931
S'EC:1.1.5.4'
p2932
asS'PF05187'
p2933
(lp2934
S'EC:1.5.5.1'
p2935
asS'TIGR00169'
p2936
(lp2937
S'EC:1.1.1.85'
p2938
asS'PF05185'
p2939
(lp2940
S'EC:2.1.1'
p2941
asS'TIGR01323'
p2942
(lp2943
S'EC:4.2.1.84'
p2944
asS'TIGR00193'
p2945
(lp2946
S'EC:3.5.1.5'
p2947
asS'TIGR00160'
p2948
(lp2949
S'EC:4.2.3.3'
p2950
asS'TIGR00163'
p2951
(lp2952
S'EC:4.1.1.65'
p2953
asS'PF09412'
p2954
(lp2955
S'EC:3.1'
p2956
asS'TIGR01574'
p2957
(lp2958
S'EC:2'
p2959
asS'PF00106'
p2960
(lp2961
S'EC:1'
p2962
asS'PF01640'
p2963
(lp2964
S'EC:3.4'
p2965
asS'PF01641'
p2966
(lp2967
S'EC:1.8.4'
p2968
asS'PF01642'
p2969
(lp2970
S'EC:5.4'
p2971
asS'PF01643'
p2972
(lp2973
S'EC:3.1.2'
p2974
asS'PF01644'
p2975
(lp2976
S'EC:2.4.1.16'
p2977
asS'PF01645'
p2978
(lp2979
S'EC:1.4'
p2980
asS'PF01648'
p2981
(lp2982
S'EC:2.7.8.7'
p2983
asS'PF00840'
p2984
(lp2985
S'EC:3.2.1'
p2986
asS'TIGR01833'
p2987
(lp2988
S'EC:2.3.3.10'
p2989
asS'TIGR02986'
p2990
(lp2991
S'EC:3.1.21.4'
p2992
asS'TIGR02987'
p2993
(lp2994
S'EC:2.1.1.72'
p2995
asS'PF01082'
p2996
(lp2997
S'EC:1.14.17'
p2998
asS'PF01083'
p2999
(lp3000
S'EC:3'
p3001
asS'PF01080'
p3002
(lp3003
S'EC:3.4.23'
p3004
asS'PF01081'
p3005
(lp3006
S'EC:4'
p3007
asS'PF01087'
p3008
(lp3009
S'EC:2.7.7.12'
p3010
asS'PF08278'
p3011
(lp3012
S'EC:2.7.7'
p3013
asS'TIGR00298'
p3014
(lp3015
S'EC:3.1.3.71'
p3016
asS'PF04101'
p3017
(lp3018
S'EC:2.4.1.46'
p3019
asS'PF05985'
p3020
(lp3021
S'EC:4.3.1.7'
p3022
asS'PF04104'
p3023
(lp3024
S'EC:2.7.7'
p3025
asS'PF04107'
p3026
(lp3027
S'EC:6.3.2.2'
p3028
asS'PF00591'
p3029
(lp3030
S'EC:2.4'
p3031
asS'PF00590'
p3032
(lp3033
S'EC:2.1.1'
p3034
asS'TIGR04041'
p3035
(lp3036
S'EC:1.97.1'
p3037
asS'PF08074'
p3038
(lp3039
S'EC:3.6.1'
p3040
asS'PF04295'
p3041
(lp3042
S'EC:4.2.1.7'
p3043
asS'PF08072'
p3044
(lp3045
S'EC:3.6.1'
p3046
asS'PF08073'
p3047
(lp3048
S'EC:3.6.1'
p3049
asS'PF07922'
p3050
(lp3051
S'EC:4.2.99.4'
p3052
asS'TIGR01211'
p3053
(lp3054
S'EC:2.3.1.48'
p3055
asS'TIGR03378'
p3056
(lp3057
S'EC:1.1.5.3'
p3058
asS'PF00609'
p3059
(lp3060
S'EC:2.7.1.107'
p3061
asS'TIGR03379'
p3062
(lp3063
S'EC:1.1.5.3'
p3064
asS'TIGR04443'
p3065
(lp3066
S'EC:6.3.2.32'
p3067
asS'PF08471'
p3068
(lp3069
S'EC:1.17.4.1'
p3070
asS'PF08472'
p3071
(lp3072
S'EC:3.1.3.24'
p3073
asS'TIGR04440'
p3074
(lp3075
S'EC:2'
p3076
asS'PF01268'
p3077
(lp3078
S'EC:6.3.4.3'
p3079
asS'PF01269'
p3080
(lp3081
S'EC:2.1.1'
p3082
asS'PF01266'
p3083
(lp3084
S'EC:1.4.99.1'
p3085
asS'PF01264'
p3086
(lp3087
S'EC:4.2.3.5'
p3088
asS'PF01265'
p3089
(lp3090
S'EC:4.4.1.17'
p3091
asS'PF01263'
p3092
(lp3093
S'EC:5'
p3094
asS'PF01515'
p3095
(lp3096
S'EC:2.3'
p3097
asS'TIGR02727'
p3098
(lp3099
S'EC:6.3.3.2'
p3100
asS'PF04030'
p3101
(lp3102
S'EC:1.1.3.37'
p3103
asS'TIGR02721'
p3104
(lp3105
S'EC:2.7.1.89'
p3106
asS'PF01513'
p3107
(lp3108
S'EC:2.7.1.23'
p3109
asS'TIGR04343'
p3110
(lp3111
S'EC:4.4'
p3112
asS'PF00026'
p3113
(lp3114
S'EC:3.4.23'
p3115
asS'TIGR02660'
p3116
(lp3117
S'EC:2.3.3.14'
p3118
asS'TIGR00580'
p3119
(lp3120
S'EC:3.6.1'
p3121
asS'PF04587'
p3122
(lp3123
S'EC:2.7.1'
p3124
asS'TIGR00586'
p3125
(lp3126
S'EC:3.6.1'
p3127
asS'TIGR00584'
p3128
(lp3129
S'EC:3.2.2'
p3130
asS'TIGR03176'
p3131
(lp3132
S'EC:3.5.3.9'
p3133
asS'PF12905'
p3134
(lp3135
S'EC:3.2.1.97'
p3136
asS'TIGR00589'
p3137
(lp3138
S'EC:2.1.1.63'
p3139
asS'TIGR00089'
p3140
(lp3141
S'EC:2.1.1'
p3142
aS'EC:2.8.1'
p3143
asS'TIGR01192'
p3144
(lp3145
S'EC:3.6.3.42'
p3146
asS'TIGR00342'
p3147
(lp3148
S'EC:2.8.1.4'
p3149
asS'PF10181'
p3150
(lp3151
S'EC:2.4.1.198'
p3152
asS'TIGR00345'
p3153
(lp3154
S'EC:3.6.1'
p3155
asS'TIGR00347'
p3156
(lp3157
S'EC:6.3.3.3'
p3158
asS'TIGR00348'
p3159
(lp3160
S'EC:3.1.21.3'
p3161
asS'TIGR01198'
p3162
(lp3163
S'EC:3.1.1.31'
p3164
asS'PF05014'
p3165
(lp3166
S'EC:3.2.2'
p3167
asS'TIGR01350'
p3168
(lp3169
S'EC:1.8.1.4'
p3170
asS'TIGR01351'
p3171
(lp3172
S'EC:2.7.4'
p3173
asS'TIGR01353'
p3174
(lp3175
S'EC:3.1.5.1'
p3176
asS'TIGR01354'
p3177
(lp3178
S'EC:3.5.4.5'
p3179
asS'PF07728'
p3180
(lp3181
S'EC:3.6.1.3'
p3182
asS'TIGR01356'
p3183
(lp3184
S'EC:2.5.1.19'
p3185
asS'TIGR01357'
p3186
(lp3187
S'EC:4.2.3.4'
p3188
asS'TIGR01358'
p3189
(lp3190
S'EC:2.5.1.54'
p3191
asS'PF00116'
p3192
(lp3193
S'EC:1.9.3.1'
p3194
asS'PF00115'
p3195
(lp3196
S'EC:1.9.3.1'
p3197
asS'PF07726'
p3198
(lp3199
S'EC:3.6.1.3'
p3200
asS'PF00113'
p3201
(lp3202
S'EC:4.2.1.11'
p3203
asS'PF01831'
p3204
(lp3205
S'EC:3.4'
p3206
asS'PF07722'
p3207
(lp3208
S'EC:3'
p3209
asS'PF00337'
p3210
(lp3211
S'EC:3.1.1.5'
p3212
asS'PF07456'
p3213
(lp3214
S'EC:2.5.1.30'
p3215
asS'PF00334'
p3216
(lp3217
S'EC:2.7.4.6'
p3218
asS'PF00332'
p3219
(lp3220
S'EC:3.2.1'
p3221
asS'PF00331'
p3222
(lp3223
S'EC:3.2.1'
p3224
asS'TIGR02901'
p3225
(lp3226
S'EC:1.10.3'
p3227
asS'PF06455'
p3228
(lp3229
S'EC:1.6.5.3'
p3230
asS'PF07109'
p3231
(lp3232
S'EC:2.1.1.11'
p3233
asS'PF06983'
p3234
(lp3235
S'EC:2.1.1.64'
p3236
asS'PF06452'
p3237
(lp3238
S'EC:3.2.1'
p3239
asS'TIGR02617'
p3240
(lp3241
S'EC:4.1.99.1'
p3242
asS'TIGR04382'
p3243
(lp3244
S'EC:2.7.1.92'
p3245
asS'TIGR04132'
p3246
(lp3247
S'EC:6.3.2'
p3248
asS'TIGR04130'
p3249
(lp3250
S'EC:5.1.3'
p3251
aS'EC:4.2.1'
p3252
asS'TIGR00093'
p3253
(lp3254
S'EC:5.4.99'
p3255
asS'TIGR03589'
p3256
(lp3257
S'EC:4.2.1.115'
p3258
asS'TIGR03588'
p3259
(lp3260
S'EC:2.6.1.92'
p3261
asS'PF06859'
p3262
(lp3263
S'EC:2.1.1'
p3264
asS'TIGR03585'
p3265
(lp3266
S'EC:2.3.1.202'
p3267
asS'TIGR03584'
p3268
(lp3269
S'EC:2.7.7.81'
p3270
asS'PF01447'
p3271
(lp3272
S'EC:3.4.24'
p3273
asS'PF07859'
p3274
(lp3275
S'EC:3'
p3276
asS'TIGR00077'
p3277
(lp3278
S'EC:3.4.23.36'
p3279
asS'PF07580'
p3280
(lp3281
S'EC:3.4.24'
p3282
asS'TIGR00249'
p3283
(lp3284
S'EC:3.1.3'
p3285
asS'PF01888'
p3286
(lp3287
S'EC:2.1.1'
p3288
asS'TIGR00094'
p3289
(lp3290
S'EC:5.4.99'
p3291
asS'PF01880'
p3292
(lp3293
S'EC:1'
p3294
asS'PF01881'
p3295
(lp3296
S'EC:3.1'
p3297
asS'PF01884'
p3298
(lp3299
S'EC:2.5.1'
p3300
asS'PF01885'
p3301
(lp3302
S'EC:2.7'
p3303
asS'TIGR00753'
p3304
(lp3305
S'EC:3.6.1.27'
p3306
asS'TIGR00751'
p3307
(lp3308
S'EC:2.5.1.74'
p3309
asS'PF07212'
p3310
(lp3311
S'EC:3.2.1.35'
p3312
asS'TIGR00757'
p3313
(lp3314
S'EC:3.1.4'
p3315
asS'TIGR00755'
p3316
(lp3317
S'EC:2.1.1.182'
p3318
asS'PF03007'
p3319
(lp3320
S'EC:2.3.1.20'
p3321
asS'TIGR02504'
p3322
(lp3323
S'EC:1.17.4.1'
p3324
asS'PF03009'
p3325
(lp3326
S'EC:3.1.4'
p3327
asS'TIGR02506'
p3328
(lp3329
S'EC:1.17.4.1'
p3330
asS'TIGR02507'
p3331
(lp3332
S'EC:2.1.1.86'
p3333
asS'TIGR00240'
p3334
(lp3335
S'EC:2.1.3.2'
p3336
asS'PF06293'
p3337
(lp3338
S'EC:2.7.1'
p3339
asS'PF00108'
p3340
(lp3341
S'EC:2.3.1'
p3342
asS'PF11968'
p3343
(lp3344
S'EC:2.1.1'
p3345
asS'TIGR01975'
p3346
(lp3347
S'EC:3.4.19.5'
p3348
asS'TIGR01970'
p3349
(lp3350
S'EC:3.6.4'
p3351
asS'TIGR01973'
p3352
(lp3353
S'EC:1.6.99.5'
p3354
asS'PF11960'
p3355
(lp3356
S'EC:1.14.19'
p3357
asS'PF06079'
p3358
(lp3359
S'EC:3.6.1.5'
p3360
asS'PF11965'
p3361
(lp3362
S'EC:6.6.1.1'
p3363
asS'PF00303'
p3364
(lp3365
S'EC:2.1.1.45'
p3366
asS'TIGR03138'
p3367
(lp3368
S'EC:1.7.1.13'
p3369
asS'TIGR03139'
p3370
(lp3371
S'EC:1.7.1.13'
p3372
asS'TIGR03137'
p3373
(lp3374
S'EC:1.11.1.15'
p3375
asS'TIGR03134'
p3376
(lp3377
S'EC:4.1.1.88'
p3378
asS'TIGR03135'
p3379
(lp3380
S'EC:2.7.7.66'
p3381
asS'TIGR03132'
p3382
(lp3383
S'EC:2.4.2.52'
p3384
asS'TIGR03133'
p3385
(lp3386
S'EC:4.1.1.88'
p3387
asS'PF05679'
p3388
(lp3389
S'EC:2.4.1'
p3390
asS'TIGR02470'
p3391
(lp3392
S'EC:2.4.1.13'
p3393
asS'PF03648'
p3394
(lp3395
S'EC:3.2.1.139'
p3396
asS'TIGR00624'
p3397
(lp3398
S'EC:3.2.2.20'
p3399
asS'TIGR02474'
p3400
(lp3401
S'EC:4.2.2.2'
p3402
asS'PF03139'
p3403
(lp3404
S'EC:1.18.6.1'
p3405
asS'TIGR02476'
p3406
(lp3407
S'EC:1.14.99.40'
p3408
asS'PF02348'
p3409
(lp3410
S'EC:2.7.7.43'
p3411
asS'PF12464'
p3412
(lp3413
S'EC:2.3.1'
p3414
asS'PF12467'
p3415
(lp3416
S'EC:3.6'
p3417
asS'TIGR01132'
p3418
(lp3419
S'EC:5.4.2.2'
p3420
asS'PF03644'
p3421
(lp3422
S'EC:3.2.1.96'
p3423
asS'TIGR00628'
p3424
(lp3425
S'EC:3.2.2.27'
p3426
asS'TIGR01133'
p3427
(lp3428
S'EC:2.4.1.227'
p3429
asS'PF06180'
p3430
(lp3431
S'EC:4.99.1.3'
p3432
asS'PF06189'
p3433
(lp3434
S'EC:3.1.3.5'
p3435
asS'PF11815'
p3436
(lp3437
S'EC:3.1.1.3'
p3438
asS'PF10430'
p3439
(lp3440
S'EC:2.7.10.1'
p3441
asS'PF10432'
p3442
(lp3443
S'EC:5.3.1.8'
p3444
asS'TIGR01138'
p3445
(lp3446
S'EC:2.5.1.47'
p3447
asS'PF01650'
p3448
(lp3449
S'EC:3.4'
p3450
asS'TIGR01139'
p3451
(lp3452
S'EC:2.5.1.47'
p3453
asS'TIGR03222'
p3454
(lp3455
S'EC:4.1.2.44'
p3456
asS'TIGR02153'
p3457
(lp3458
S'EC:6.3.5'
p3459
asS'PF03734'
p3460
(lp3461
S'EC:2'
p3462
asS'TIGR03221'
p3463
(lp3464
S'EC:5.3.3.4'
p3465
asS'TIGR02335'
p3466
(lp3467
S'EC:3.11.1.2'
p3468
asS'PF01862'
p3469
(lp3470
S'EC:4.1.1.19'
p3471
asS'PF08918'
p3472
(lp3473
S'EC:2.7.13.3'
p3474
asS'TIGR01035'
p3475
(lp3476
S'EC:1.2.1.70'
p3477
asS'PF02607'
p3478
(lp3479
S'EC:2.1.1.13'
p3480
asS'PF02606'
p3481
(lp3482
S'EC:2.7.1.130'
p3483
asS'PF02353'
p3484
(lp3485
S'EC:2.1.1.79'
p3486
asS'TIGR00936'
p3487
(lp3488
S'EC:3.3.1.1'
p3489
asS'PF03738'
p3490
(lp3491
S'EC:6.3.1.8'
p3492
asS'PF02602'
p3493
(lp3494
S'EC:4.2.1.75'
p3495
asS'TIGR01485'
p3496
(lp3497
S'EC:3.1.3.24'
p3498
asS'PF12590'
p3499
(lp3500
S'EC:3.1.2'
p3501
asS'PF12592'
p3502
(lp3503
S'EC:3.6.3'
p3504
asS'TIGR01036'
p3505
(lp3506
S'EC:1.3.98.1'
p3507
asS'TIGR01486'
p3508
(lp3509
S'EC:3.1.3'
p3510
asS'TIGR01487'
p3511
(lp3512
S'EC:3.1.3.18'
p3513
asS'PF03917'
p3514
(lp3515
S'EC:6.3.2.3'
p3516
asS'PF05770'
p3517
(lp3518
S'EC:2.7.1.159'
p3519
asS'TIGR02062'
p3520
(lp3521
S'EC:3.1.13.1'
p3522
asS'TIGR02061'
p3523
(lp3524
S'EC:1.8.99.2'
p3525
asS'TIGR02060'
p3526
(lp3527
S'EC:1.8.99.2'
p3528
asS'TIGR01758'
p3529
(lp3530
S'EC:1.1.1.37'
p3531
asS'TIGR01759'
p3532
(lp3533
S'EC:1.1.1'
p3534
asS'TIGR02065'
p3535
(lp3536
S'EC:3.1.13'
p3537
asS'TIGR02064'
p3538
(lp3539
S'EC:1.8.99.3'
p3540
asS'TIGR01755'
p3541
(lp3542
S'EC:1.6.5.2'
p3543
asS'TIGR02069'
p3544
(lp3545
S'EC:3.4.15.6'
p3546
asS'TIGR02068'
p3547
(lp3548
S'EC:6.3.2.29'
p3549
aS'EC:6.3.2.30'
p3550
asS'TIGR01750'
p3551
(lp3552
S'EC:4.2.1'
p3553
asS'TIGR01751'
p3554
(lp3555
S'EC:1.3.1.85'
p3556
asS'TIGR03828'
p3557
(lp3558
S'EC:2.7.1.56'
p3559
asS'TIGR02260'
p3560
(lp3561
S'EC:1.3.7.8'
p3562
asS'TIGR02263'
p3563
(lp3564
S'EC:1.3.7.8'
p3565
asS'TIGR01992'
p3566
(lp3567
S'EC:2.7.1.69'
p3568
asS'TIGR01993'
p3569
(lp3570
S'EC:3.1.3.5'
p3571
asS'TIGR01990'
p3572
(lp3573
S'EC:5.4.2.6'
p3574
asS'TIGR01996'
p3575
(lp3576
S'EC:2.7.1.69'
p3577
asS'TIGR03827'
p3578
(lp3579
S'EC:2.3.1'
p3580
asS'PF12285'
p3581
(lp3582
S'EC:3.4.21'
p3583
asS'PF02511'
p3584
(lp3585
S'EC:2.1.1.148'
p3586
asS'PF03829'
p3587
(lp3588
S'EC:2.7.1.69'
p3589
asS'PF03358'
p3590
(lp3591
S'EC:1'
p3592
asS'PF08826'
p3593
(lp3594
S'EC:2.7.11'
p3595
asS'PF08825'
p3596
(lp3597
S'EC:6.3.2'
p3598
asS'PF02516'
p3599
(lp3600
S'EC:2.4.1'
p3601
asS'TIGR03301'
p3602
(lp3603
S'EC:2.6.1'
p3604
asS'PF09249'
p3605
(lp3606
S'EC:2.7.7.21'
p3607
asS'PF09243'
p3608
(lp3609
S'EC:2.1.1'
p3610
asS'PF00107'
p3611
(lp3612
S'EC:1'
p3613
asS'TIGR01270'
p3614
(lp3615
S'EC:1.14.16.4'
p3616
asS'TIGR03189'
p3617
(lp3618
S'EC:4.2.1.100'
p3619
asS'PF02774'
p3620
(lp3621
S'EC:1.2.1.38'
p3622
asS'PF02777'
p3623
(lp3624
S'EC:1.15.1.1'
p3625
asS'PF02771'
p3626
(lp3627
S'EC:1.3'
p3628
asS'PF02770'
p3629
(lp3630
S'EC:1.3.99.3'
p3631
asS'PF02773'
p3632
(lp3633
S'EC:2.5.1.6'
p3634
asS'PF02772'
p3635
(lp3636
S'EC:2.5.1.6'
p3637
asS'PF05173'
p3638
(lp3639
S'EC:1.17.1.8'
p3640
asS'PF02778'
p3641
(lp3642
S'EC:3.1.27.9'
p3643
asS'PF05175'
p3644
(lp3645
S'EC:2.1.1'
p3646
asS'PF05379'
p3647
(lp3648
S'EC:3.6'
p3649
asS'PF12139'
p3650
(lp3651
S'EC:1.8.99.2'
p3652
asS'TIGR03914'
p3653
(lp3654
S'EC:3.2.2'
p3655
asS'PF12137'
p3656
(lp3657
S'EC:3.6'
p3658
asS'TIGR03912'
p3659
(lp3660
S'EC:6.1.1.26'
p3661
asS'PF05373'
p3662
(lp3663
S'EC:1.14.11'
p3664
asS'PF05195'
p3665
(lp3666
S'EC:3.4.11'
p3667
asS'PF01189'
p3668
(lp3669
S'EC:2.1.1'
p3670
asS'TIGR00119'
p3671
(lp3672
S'EC:2.2.1.6'
p3673
asS'PF05191'
p3674
(lp3675
S'EC:2.7.4.3'
p3676
asS'PF01183'
p3677
(lp3678
S'EC:3.2.1.17'
p3679
asS'TIGR00114'
p3680
(lp3681
S'EC:2.5.1.78'
p3682
asS'TIGR00117'
p3683
(lp3684
S'EC:4.2.1.3'
p3685
asS'PF01180'
p3686
(lp3687
S'EC:1.3'
p3688
asS'PF01186'
p3689
(lp3690
S'EC:1.4.3'
p3691
asS'TIGR00113'
p3692
(lp3693
S'EC:2.4.99.17'
p3694
asS'TIGR03494'
p3695
(lp3696
S'EC:5.4.4.2'
p3697
aS'EC:4.1.3'
p3698
asS'PF01478'
p3699
(lp3700
S'EC:3.4.23'
p3701
asS'PF00852'
p3702
(lp3703
S'EC:2.4.1'
p3704
asS'TIGR01508'
p3705
(lp3706
S'EC:1.1.1'
p3707
asS'PF00851'
p3708
(lp3709
S'EC:3.4.22'
p3710
asS'TIGR01505'
p3711
(lp3712
S'EC:1.1.1.60'
p3713
asS'TIGR01504'
p3714
(lp3715
S'EC:4.1.1.47'
p3716
asS'TIGR02860'
p3717
(lp3718
S'EC:3.4.21.116'
p3719
asS'TIGR01506'
p3720
(lp3721
S'EC:2.5.1.9'
p3722
asS'TIGR01501'
p3723
(lp3724
S'EC:5.4.99.1'
p3725
asS'TIGR01500'
p3726
(lp3727
S'EC:1.1.1.153'
p3728
asS'TIGR01503'
p3729
(lp3730
S'EC:5.4.99.1'
p3731
asS'TIGR01502'
p3732
(lp3733
S'EC:4.3.1.2'
p3734
asS'PF01678'
p3735
(lp3736
S'EC:5.1.1.7'
p3737
asS'PF04828'
p3738
(lp3739
S'EC:4.4'
p3740
asS'PF04827'
p3741
(lp3742
S'EC:3.1'
p3743
asS'PF01674'
p3744
(lp3745
S'EC:3'
p3746
asS'PF00102'
p3747
(lp3748
S'EC:3.1.3.48'
p3749
asS'PF01670'
p3750
(lp3751
S'EC:3.2.1.4'
p3752
asS'TIGR00749'
p3753
(lp3754
S'EC:2.7.1.2'
p3755
asS'TIGR02089'
p3756
(lp3757
S'EC:1.1.1.93'
p3758
asS'PF01079'
p3759
(lp3760
S'EC:3.4'
p3761
asS'PF01078'
p3762
(lp3763
S'EC:6.6.1.1'
p3764
asS'PF01077'
p3765
(lp3766
S'EC:1'
p3767
asS'TIGR02080'
p3768
(lp3769
S'EC:2.5.1.48'
p3770
asS'PF01075'
p3771
(lp3772
S'EC:2.4'
p3773
asS'PF01074'
p3774
(lp3775
S'EC:3.2.1.24'
p3776
asS'PF01073'
p3777
(lp3778
S'EC:1.1.1.145'
p3779
asS'TIGR00287'
p3780
(lp3781
S'EC:3.1'
p3782
asS'PF01070'
p3783
(lp3784
S'EC:1'
p3785
asS'TIGR04058'
p3786
(lp3787
S'EC:1.1.1'
p3788
asS'PF09663'
p3789
(lp3790
S'EC:3.5.2.15'
p3791
asS'PF01694'
p3792
(lp3793
S'EC:3.4.21.105'
p3794
asS'PF05995'
p3795
(lp3796
S'EC:1.13.11.20'
p3797
asS'PF05996'
p3798
(lp3799
S'EC:1.3.7.2'
p3800
asS'TIGR04055'
p3801
(lp3802
S'EC:1.3.99'
p3803
asS'TIGR00021'
p3804
(lp3805
S'EC:5.3.1.6'
p3806
asS'TIGR00023'
p3807
(lp3808
S'EC:2.3.1'
p3809
asS'PF00583'
p3810
(lp3811
S'EC:2.3.1'
p3812
asS'PF09061'
p3813
(lp3814
S'EC:3.1'
p3815
asS'PF00586'
p3816
(lp3817
S'EC:6.3.3.1'
p3818
asS'PF00588'
p3819
(lp3820
S'EC:2.1.1'
p3821
asS'PF08040'
p3822
(lp3823
S'EC:1.6.99.3'
p3824
asS'PF07930'
p3825
(lp3826
S'EC:3.4.11'
p3827
asS'PF07931'
p3828
(lp3829
S'EC:2'
p3830
asS'TIGR01213'
p3831
(lp3832
S'EC:5.4.99.25'
p3833
asS'TIGR01214'
p3834
(lp3835
S'EC:1.1.1.133'
p3836
asS'TIGR01217'
p3837
(lp3838
S'EC:6.2.1.16'
p3839
asS'TIGR01216'
p3840
(lp3841
S'EC:3.6.3.14'
p3842
asS'TIGR01219'
p3843
(lp3844
S'EC:2.7.4.2'
p3845
asS'PF13733'
p3846
(lp3847
S'EC:2.4.1.90'
p3848
asS'PF05206'
p3849
(lp3850
S'EC:2.1.1'
p3851
asS'PF01218'
p3852
(lp3853
S'EC:1.3.3.3'
p3854
asS'TIGR02884'
p3855
(lp3856
S'EC:3.5'
p3857
asS'PF08445'
p3858
(lp3859
S'EC:2.3.1'
p3860
asS'PF08444'
p3861
(lp3862
S'EC:2.3.1.13'
p3863
asS'PF01210'
p3864
(lp3865
S'EC:1.1.1'
p3866
asS'PF05208'
p3867
(lp3868
S'EC:2.4.1'
p3869
asS'PF08440'
p3870
(lp3871
S'EC:3.6.1'
p3872
asS'PF01215'
p3873
(lp3874
S'EC:1.9.3.1'
p3875
asS'PF01520'
p3876
(lp3877
S'EC:3.5.1.28'
p3878
asS'PF01522'
p3879
(lp3880
S'EC:3.5'
p3881
asS'PF01525'
p3882
(lp3883
S'EC:3.6.1.3'
p3884
asS'PF00032'
p3885
(lp3886
S'EC:1'
p3887
asS'TIGR03232'
p3888
(lp3889
S'EC:1.14.12.10'
p3890
asS'PF12919'
p3891
(lp3892
S'EC:2.4'
p3893
asS'TIGR03557'
p3894
(lp3895
S'EC:1'
p3896
asS'TIGR00334'
p3897
(lp3898
S'EC:3.1.26.8'
p3899
asS'TIGR00337'
p3900
(lp3901
S'EC:6.3.4.2'
p3902
asS'TIGR00336'
p3903
(lp3904
S'EC:2.4.2.10'
p3905
asS'TIGR00330'
p3906
(lp3907
S'EC:3.1.3.11'
p3908
asS'TIGR00339'
p3909
(lp3910
S'EC:2.7.7.4'
p3911
asS'TIGR00338'
p3912
(lp3913
S'EC:3.1.3.3'
p3914
asS'TIGR01325'
p3915
(lp3916
S'EC:4.2.99'
p3917
asS'TIGR01324'
p3918
(lp3919
S'EC:4.4.1.8'
p3920
asS'PF01457'
p3921
(lp3922
S'EC:3.4.24'
p3923
asS'PF04131'
p3924
(lp3925
S'EC:5.1.3.9'
p3926
asS'PF01450'
p3927
(lp3928
S'EC:1.1.1.86'
p3929
asS'PF01321'
p3930
(lp3931
S'EC:3'
p3932
asS'TIGR01322'
p3933
(lp3934
S'EC:3.2.1'
p3935
asS'PF07730'
p3936
(lp3937
S'EC:2.7.3'
p3938
asS'PF07731'
p3939
(lp3940
S'EC:1'
p3941
asS'PF07736'
p3942
(lp3943
S'EC:5.4.99.5'
p3944
asS'TIGR01328'
p3945
(lp3946
S'EC:4.4.1.11'
p3947
asS'PF01329'
p3948
(lp3949
S'EC:4.2.1.96'
p3950
asS'PF01328'
p3951
(lp3952
S'EC:1.11.1.7'
p3953
asS'TIGR02665'
p3954
(lp3955
S'EC:2.7.7.77'
p3956
asS'PF00328'
p3957
(lp3958
S'EC:3.1.3.2'
p3959
asS'PF00329'
p3960
(lp3961
S'EC:1.6.5.3'
p3962
asS'PF06466'
p3963
(lp3964
S'EC:2.3.1.48'
p3965
asS'TIGR04120'
p3966
(lp3967
S'EC:6.5.1.1'
p3968
asS'TIGR04121'
p3969
(lp3970
S'EC:3.6.4'
p3971
asS'PF08133'
p3972
(lp3973
S'EC:3.1'
p3974
asS'TIGR04125'
p3975
(lp3976
S'EC:3.4.22'
p3977
asS'PF04647'
p3978
(lp3979
S'EC:3.4'
p3980
asS'TIGR03590'
p3981
(lp3982
S'EC:3.6.1.57'
p3983
asS'TIGR03591'
p3984
(lp3985
S'EC:2.7.7.8'
p3986
asS'PF12601'
p3987
(lp3988
S'EC:3.4.22'
p3989
asS'TIGR00243'
p3990
(lp3991
S'EC:1.1.1.267'
p3992
asS'TIGR01472'
p3993
(lp3994
S'EC:4.2.1.47'
p3995
asS'PF12605'
p3996
(lp3997
S'EC:2.7.11'
p3998
asS'TIGR00246'
p3999
(lp4000
S'EC:2.1.1.177'
p4001
asS'TIGR01039'
p4002
(lp4003
S'EC:3.6.3.14'
p4004
asS'PF10282'
p4005
(lp4006
S'EC:5.5.1.5'
p4007
asS'TIGR01034'
p4008
(lp4009
S'EC:2.5.1.6'
p4010
asS'TIGR01037'
p4011
(lp4012
S'EC:1.3'
p4013
asS'PF07847'
p4014
(lp4015
S'EC:1.13.11'
p4016
asS'PF06888'
p4017
(lp4018
S'EC:3.1.3.41'
p4019
asS'TIGR00745'
p4020
(lp4021
S'EC:1.1.1'
p4022
asS'TIGR00746'
p4023
(lp4024
S'EC:2.7.2.2'
p4025
asS'TIGR00747'
p4026
(lp4027
S'EC:2.3.1.180'
p4028
asS'TIGR00740'
p4029
(lp4030
S'EC:2.1.1'
p4031
asS'TIGR00742'
p4032
(lp4033
S'EC:1'
p4034
asS'TIGR04003'
p4035
(lp4036
S'EC:1.97'
p4037
asS'TIGR00748'
p4038
(lp4039
S'EC:2.3.3.10'
p4040
asS'PF03030'
p4041
(lp4042
S'EC:3.6.1.1'
p4043
asS'PF03033'
p4044
(lp4045
S'EC:2.4.1.46'
p4046
asS'PF02102'
p4047
(lp4048
S'EC:3.4.24'
p4049
asS'PF04277'
p4050
(lp4051
S'EC:1.1.1.38'
p4052
asS'PF04926'
p4053
(lp4054
S'EC:2.7.7.19'
p4055
asS'TIGR03048'
p4056
(lp4057
S'EC:1.97.1.12'
p4058
asS'PF01983'
p4059
(lp4060
S'EC:2.7.7'
p4061
asS'PF01982'
p4062
(lp4063
S'EC:2.7.1.26'
p4064
asS'PF06089'
p4065
(lp4066
S'EC:3.5.1.1'
p4067
asS'TIGR01658'
p4068
(lp4069
S'EC:3.1.3.48'
p4070
asS'PF06087'
p4071
(lp4072
S'EC:3.1.4'
p4073
asS'TIGR04479'
p4074
(lp4075
S'EC:2.1'
p4076
asS'TIGR01712'
p4077
(lp4078
S'EC:2.1.1.72'
p4079
asS'TIGR00639'
p4080
(lp4081
S'EC:2.1.2.2'
p4082
asS'TIGR03107'
p4083
(lp4084
S'EC:3.4.11.7'
p4085
asS'TIGR03105'
p4086
(lp4087
S'EC:6.3.1.2'
p4088
asS'TIGR00630'
p4089
(lp4090
S'EC:3.1.25'
p4091
asS'TIGR00631'
p4092
(lp4093
S'EC:3.1.25'
p4094
asS'TIGR00632'
p4095
(lp4096
S'EC:3.1'
p4097
asS'TIGR00633'
p4098
(lp4099
S'EC:3.1.11.2'
p4100
asS'PF04577'
p4101
(lp4102
S'EC:2.4'
p4103
asS'TIGR00636'
p4104
(lp4105
S'EC:2.5.1.17'
p4106
asS'TIGR02407'
p4107
(lp4108
S'EC:2.6.1.76'
p4109
asS'PF01373'
p4110
(lp4111
S'EC:3.2.1.2'
p4112
asS'TIGR02401'
p4113
(lp4114
S'EC:5.4.99.15'
p4115
asS'TIGR02400'
p4116
(lp4117
S'EC:2.4.1.15'
p4118
asS'TIGR02403'
p4119
(lp4120
S'EC:3.2.1.93'
p4121
asS'TIGR02402'
p4122
(lp4123
S'EC:3.2.1.141'
p4124
asS'TIGR01717'
p4125
(lp4126
S'EC:3.2.2.4'
p4127
asS'TIGR02409'
p4128
(lp4129
S'EC:1.14.11.1'
p4130
asS'TIGR02408'
p4131
(lp4132
S'EC:1'
p4133
asS'TIGR04473'
p4134
(lp4135
S'EC:5.4.3.10'
p4136
asS'PF06645'
p4137
(lp4138
S'EC:3.4'
p4139
asS'TIGR02865'
p4140
(lp4141
S'EC:3.1.3.16'
p4142
asS'TIGR01650'
p4143
(lp4144
S'EC:6.6.1.2'
p4145
asS'PF00770'
p4146
(lp4147
S'EC:3.4.22'
p4148
asS'TIGR02369'
p4149
(lp4150
S'EC:2.1.1.250'
p4151
asS'TIGR01699'
p4152
(lp4153
S'EC:2.4.2.1'
p4154
asS'TIGR01698'
p4155
(lp4156
S'EC:2.4.2.1'
p4157
asS'TIGR02732'
p4158
(lp4159
S'EC:1.3.5.6'
p4160
asS'PF10423'
p4161
(lp4162
S'EC:3.2.2.4'
p4163
asS'TIGR01697'
p4164
(lp4165
S'EC:2.4.2.1'
p4166
asS'TIGR01696'
p4167
(lp4168
S'EC:5.4.2.7'
p4169
asS'PF10426'
p4170
(lp4171
S'EC:6.3.2'
p4172
asS'TIGR01693'
p4173
(lp4174
S'EC:2.7.7.59'
p4175
asS'TIGR01692'
p4176
(lp4177
S'EC:1.1.1.31'
p4178
asS'TIGR04007'
p4179
(lp4180
S'EC:2.4'
p4181
asS'TIGR02730'
p4182
(lp4183
S'EC:5'
p4184
asS'TIGR03692'
p4185
(lp4186
S'EC:3.4.25.2'
p4187
asS'PF13378'
p4188
(lp4189
S'EC:4.2.1.40'
p4190
asS'TIGR03109'
p4191
(lp4192
S'EC:3.4.22'
p4193
asS'TIGR02736'
p4194
(lp4195
S'EC:1.9.3.1'
p4196
asS'TIGR02319'
p4197
(lp4198
S'EC:2.7.8.23'
p4199
asS'PF03214'
p4200
(lp4201
S'EC:5.4'
p4202
asS'PF01853'
p4203
(lp4204
S'EC:2.3.1'
p4205
asS'PF03740'
p4206
(lp4207
S'EC:2.6.99.2'
p4208
asS'PF03747'
p4209
(lp4210
S'EC:3.2.2.19'
p4211
asS'TIGR02735'
p4212
(lp4213
S'EC:6.3.2.6'
p4214
asS'TIGR03211'
p4215
(lp4216
S'EC:1.13.11.2'
p4217
asS'PF03744'
p4218
(lp4219
S'EC:6.2.1.14'
p4220
asS'TIGR02311'
p4221
(lp4222
S'EC:4.1.2'
p4223
asS'PF02613'
p4224
(lp4225
S'EC:1.7.99.4'
p4226
asS'PF02610'
p4227
(lp4228
S'EC:5.3.1.4'
p4229
asS'PF02611'
p4230
(lp4231
S'EC:3.6.1.26'
p4232
asS'TIGR02315'
p4233
(lp4234
S'EC:3.6.3.28'
p4235
asS'TIGR02314'
p4236
(lp4237
S'EC:3.6.3'
p4238
asS'PF02614'
p4239
(lp4240
S'EC:5.3.1.12'
p4241
asS'PF02615'
p4242
(lp4243
S'EC:1.1.1.27'
p4244
asS'PF03587'
p4245
(lp4246
S'EC:2.1.1'
p4247
asS'TIGR03399'
p4248
(lp4249
S'EC:6.5.1.4'
p4250
asS'PF14702'
p4251
(lp4252
S'EC:2.4.1.25'
p4253
asS'PF14701'
p4254
(lp4255
S'EC:2.4.1.25'
p4256
asS'PF03588'
p4257
(lp4258
S'EC:2.3.2.6'
p4259
asS'PF02982'
p4260
(lp4261
S'EC:4.2.1.94'
p4262
asS'PF14850'
p4263
(lp4264
S'EC:1.5.1.12'
p4265
asS'TIGR02075'
p4266
(lp4267
S'EC:2.7.4.22'
p4268
asS'TIGR02076'
p4269
(lp4270
S'EC:2.7.4'
p4271
asS'TIGR02406'
p4272
(lp4273
S'EC:2.3.1.178'
p4274
asS'TIGR02070'
p4275
(lp4276
S'EC:2.4.2'
p4277
asS'TIGR02072'
p4278
(lp4279
S'EC:2.1.1'
p4280
asS'PF03211'
p4281
(lp4282
S'EC:4.2.2.2'
p4283
asS'TIGR02078'
p4284
(lp4285
S'EC:2.7.2.4'
p4286
asS'TIGR02079'
p4287
(lp4288
S'EC:4.3.1.19'
p4289
asS'TIGR02272'
p4290
(lp4291
S'EC:1.13.11.4'
p4292
asS'TIGR00591'
p4293
(lp4294
S'EC:4.1.99.3'
p4295
asS'PF02504'
p4296
(lp4297
S'EC:2.3.1'
p4298
asS'PF02502'
p4299
(lp4300
S'EC:5'
p4301
asS'TIGR03858'
p4302
(lp4303
S'EC:1'
p4304
asS'TIGR02274'
p4305
(lp4306
S'EC:3.5.4.13'
p4307
asS'TIGR02275'
p4308
(lp4309
S'EC:2.7.7.58'
p4310
asS'TIGR03855'
p4311
(lp4312
S'EC:1.4.1.21'
p4313
asS'TIGR02279'
p4314
(lp4315
S'EC:1.1.1'
p4316
asS'TIGR03852'
p4317
(lp4318
S'EC:2.4.1.7'
p4319
asS'PF03360'
p4320
(lp4321
S'EC:2.4.1.135'
p4322
asS'TIGR02563'
p4323
(lp4324
S'EC:3.1'
p4325
asS'TIGR01927'
p4326
(lp4327
S'EC:4.2.1.113'
p4328
asS'PF09272'
p4329
(lp4330
S'EC:3.4.21'
p4331
asS'PF10605'
p4332
(lp4333
S'EC:3.1.1.22'
p4334
asS'PF04909'
p4335
(lp4336
S'EC:3'
p4337
asS'TIGR02789'
p4338
(lp4339
S'EC:3.6.3.24'
p4340
asS'PF00926'
p4341
(lp4342
S'EC:4.1.99.12'
p4343
asS'PF00927'
p4344
(lp4345
S'EC:2.3.2.13'
p4346
asS'PF00925'
p4347
(lp4348
S'EC:3.5.4.25'
p4349
asS'PF02160'
p4350
(lp4351
S'EC:3.4.23'
p4352
asS'PF02163'
p4353
(lp4354
S'EC:3.4.24'
p4355
asS'PF12143'
p4356
(lp4357
S'EC:1.10.3.1'
p4358
asS'PF12142'
p4359
(lp4360
S'EC:1.10.3.1'
p4361
asS'PF05691'
p4362
(lp4363
S'EC:2.4.1.82'
p4364
asS'PF05342'
p4365
(lp4366
S'EC:3.4.24'
p4367
asS'PF09472'
p4368
(lp4369
S'EC:2.1.1.86'
p4370
asS'TIGR00109'
p4371
(lp4372
S'EC:4.99.1.1'
p4373
asS'TIGR00107'
p4374
(lp4375
S'EC:2.4.2.1'
p4376
asS'TIGR00104'
p4377
(lp4378
S'EC:2.1.1'
p4379
asS'PF00821'
p4380
(lp4381
S'EC:4.1.1'
p4382
asS'PF13434'
p4383
(lp4384
S'EC:1.14.13.59'
p4385
asS'TIGR01518'
p4386
(lp4387
S'EC:2.7.7.39'
p4388
asS'TIGR01517'
p4389
(lp4390
S'EC:3.6.3.8'
p4391
asS'TIGR01514'
p4392
(lp4393
S'EC:6.3.4.21'
p4394
asS'TIGR01515'
p4395
(lp4396
S'EC:2.4.1.18'
p4397
asS'TIGR01512'
p4398
(lp4399
S'EC:3.6.3.3'
p4400
asS'TIGR01513'
p4401
(lp4402
S'EC:6.3.4.21'
p4403
asS'TIGR01510'
p4404
(lp4405
S'EC:2.7.7.3'
p4406
asS'TIGR01511'
p4407
(lp4408
S'EC:3.6.3.4'
p4409
asS'TIGR01534'
p4410
(lp4411
S'EC:1.2.1'
p4412
asS'PF00454'
p4413
(lp4414
S'EC:2.7.1'
p4415
asS'PF10778'
p4416
(lp4417
S'EC:3.8.1'
p4418
asS'TIGR01535'
p4419
(lp4420
S'EC:3.2.1.3'
p4421
asS'PF01660'
p4422
(lp4423
S'EC:2.1.1'
p4424
asS'TIGR01536'
p4425
(lp4426
S'EC:6.3.5.4'
p4427
asS'TIGR01189'
p4428
(lp4429
S'EC:3.6.3.41'
p4430
asS'PF01064'
p4431
(lp4432
S'EC:2.7.11'
p4433
asS'TIGR02093'
p4434
(lp4435
S'EC:2.4.1.1'
p4436
asS'PF01066'
p4437
(lp4438
S'EC:2.7.8'
p4439
asS'TIGR02091'
p4440
(lp4441
S'EC:2.7.7.27'
p4442
asS'TIGR02094'
p4443
(lp4444
S'EC:2.4.1.1'
p4445
asS'TIGR02095'
p4446
(lp4447
S'EC:2.4.1.21'
p4448
asS'PF01687'
p4449
(lp4450
S'EC:2.7.1.26'
p4451
asS'TIGR01532'
p4452
(lp4453
S'EC:1.2.1.72'
p4454
asS'TIGR04025'
p4455
(lp4456
S'EC:1'
p4457
asS'TIGR04024'
p4458
(lp4459
S'EC:1.14'
p4460
asS'TIGR04027'
p4461
(lp4462
S'EC:1'
p4463
asS'PF02347'
p4464
(lp4465
S'EC:1.4.4.2'
p4466
asS'TIGR04021'
p4467
(lp4468
S'EC:1.14'
p4469
asS'TIGR04020'
p4470
(lp4471
S'EC:1'
p4472
asS'TIGR04023'
p4473
(lp4474
S'EC:1'
p4475
asS'TIGR04022'
p4476
(lp4477
S'EC:1'
p4478
asS'TIGR00032'
p4479
(lp4480
S'EC:6.3.4.5'
p4481
asS'TIGR00033'
p4482
(lp4483
S'EC:4.2.3.5'
p4484
asS'TIGR00031'
p4485
(lp4486
S'EC:5.4.99.9'
p4487
asS'PF09055'
p4488
(lp4489
S'EC:1.15.1.1'
p4490
asS'TIGR00034'
p4491
(lp4492
S'EC:2.5.1.54'
p4493
asS'PF09508'
p4494
(lp4495
S'EC:2.4.1.211'
p4496
asS'PF09505'
p4497
(lp4498
S'EC:2.1.1'
p4499
asS'PF08587'
p4500
(lp4501
S'EC:2.7.11'
p4502
asS'TIGR01203'
p4503
(lp4504
S'EC:2.4.2.8'
p4505
asS'TIGR04253'
p4506
(lp4507
S'EC:5'
p4508
asS'TIGR01207'
p4509
(lp4510
S'EC:2.7.7.24'
p4511
asS'TIGR01204'
p4512
(lp4513
S'EC:6.2.1.14'
p4514
asS'TIGR01205'
p4515
(lp4516
S'EC:6.3.2.4'
p4517
asS'TIGR01208'
p4518
(lp4519
S'EC:2.7.7.24'
p4520
asS'PF01208'
p4521
(lp4522
S'EC:4.1.1.37'
p4523
asS'PF01209'
p4524
(lp4525
S'EC:2.1.1'
p4526
asS'PF04345'
p4527
(lp4528
S'EC:4.1.3.40'
p4529
asS'TIGR02897'
p4530
(lp4531
S'EC:1.10.3'
p4532
asS'TIGR01694'
p4533
(lp4534
S'EC:2.4.2.28'
p4535
asS'PF01204'
p4536
(lp4537
S'EC:3.2.1.28'
p4538
asS'TIGR01063'
p4539
(lp4540
S'EC:5.99.1.3'
p4541
asS'PF07694'
p4542
(lp4543
S'EC:2.7.3'
p4544
asS'TIGR03691'
p4545
(lp4546
S'EC:3.4.25.1'
p4547
asS'TIGR03690'
p4548
(lp4549
S'EC:3.4.25.1'
p4550
asS'PF01538'
p4551
(lp4552
S'EC:3.4.22'
p4553
asS'TIGR03694'
p4554
(lp4555
S'EC:2.3.1'
p4556
asS'PF01536'
p4557
(lp4558
S'EC:4.1.1.50'
p4559
asS'TIGR01691'
p4560
(lp4561
S'EC:3.1.3.77'
p4562
asS'TIGR03698'
p4563
(lp4564
S'EC:3.4.23'
p4565
asS'PF01532'
p4566
(lp4567
S'EC:3.2.1.113'
p4568
asS'PF04013'
p4569
(lp4570
S'EC:2.1.1'
p4571
asS'PF01531'
p4572
(lp4573
S'EC:2.4.1.69'
p4574
asS'TIGR03451'
p4575
(lp4576
S'EC:1.1.1.306'
p4577
asS'TIGR03450'
p4578
(lp4579
S'EC:5.5.1'
p4580
asS'PF05834'
p4581
(lp4582
S'EC:1.14'
p4583
asS'PF13892'
p4584
(lp4585
S'EC:3.6'
p4586
asS'TIGR03457'
p4587
(lp4588
S'EC:2.3.3.15'
p4589
asS'PF05830'
p4590
(lp4591
S'EC:2.4.1'
p4592
asS'TIGR03458'
p4593
(lp4594
S'EC:2.8.3'
p4595
asS'TIGR04483'
p4596
(lp4597
S'EC:1.21.4.1'
p4598
asS'PF02350'
p4599
(lp4600
S'EC:5.1.3.14'
p4601
asS'TIGR00326'
p4602
(lp4603
S'EC:3.5.4.26'
p4604
aS'EC:1.1.1.193'
p4605
asS'TIGR00324'
p4606
(lp4607
S'EC:4.6.1.16'
p4608
asS'TIGR01344'
p4609
(lp4610
S'EC:2.3.3.9'
p4611
asS'TIGR00321'
p4612
(lp4613
S'EC:2.5.1.46'
p4614
asS'PF00483'
p4615
(lp4616
S'EC:2.7.7'
p4617
asS'PF00484'
p4618
(lp4619
S'EC:4.2.1.1'
p4620
asS'TIGR01336'
p4621
(lp4622
S'EC:1.97.1.12'
p4623
asS'TIGR00078'
p4624
(lp4625
S'EC:2.4.2.19'
p4626
asS'TIGR01335'
p4627
(lp4628
S'EC:1.97.1.12'
p4629
asS'TIGR03902'
p4630
(lp4631
S'EC:3.4.21'
p4632
asS'PF04127'
p4633
(lp4634
S'EC:4.1.1.36'
p4635
asS'TIGR01330'
p4636
(lp4637
S'EC:3.1.3.7'
p4638
asS'TIGR01331'
p4639
(lp4640
S'EC:3.1.3.7'
p4641
asS'TIGR01916'
p4642
(lp4643
S'EC:6.3.2.31'
p4644
asS'PF01339'
p4645
(lp4646
S'EC:3.1.1.61'
p4647
asS'PF00311'
p4648
(lp4649
S'EC:4.1.1.31'
p4650
asS'PF07475'
p4651
(lp4652
S'EC:2.7.3'
p4653
asS'PF00317'
p4654
(lp4655
S'EC:1.17.4.1'
p4656
asS'PF07476'
p4657
(lp4658
S'EC:4.3.1.2'
p4659
asS'PF07479'
p4660
(lp4661
S'EC:1.1.1.94'
p4662
asS'PF07478'
p4663
(lp4664
S'EC:6.3.2.4'
p4665
asS'PF04952'
p4666
(lp4667
S'EC:3.5.1.15'
p4668
asS'TIGR04154'
p4669
(lp4670
S'EC:2.4.1'
p4671
asS'TIGR04157'
p4672
(lp4673
S'EC:2.4.1'
p4674
asS'TIGR04156'
p4675
(lp4676
S'EC:3.4.22'
p4677
asS'TIGR04151'
p4678
(lp4679
S'EC:3.4.22'
p4680
asS'TIGR04152'
p4681
(lp4682
S'EC:3.4.22'
p4683
asS'PF08126'
p4684
(lp4685
S'EC:3.4.22'
p4686
asS'PF08127'
p4687
(lp4688
S'EC:3.4.22'
p4689
asS'PF08124'
p4690
(lp4691
S'EC:4.2.2.1'
p4692
asS'PF08125'
p4693
(lp4694
S'EC:1'
p4695
asS'PF08123'
p4696
(lp4697
S'EC:2.1.1.43'
p4698
asS'PF06872'
p4699
(lp4700
S'EC:3.4.22'
p4701
asS'TIGR00256'
p4702
(lp4703
S'EC:3.6.1'
p4704
asS'PF06874'
p4705
(lp4706
S'EC:3.1.3.11'
p4707
asS'PF00005'
p4708
(lp4709
S'EC:3.6.1.3'
p4710
asS'PF07057'
p4711
(lp4712
S'EC:3.6.1'
p4713
asS'PF00551'
p4714
(lp4715
S'EC:2.1.2'
p4716
asS'TIGR01026'
p4717
(lp4718
S'EC:3.6.3.14'
p4719
asS'TIGR01027'
p4720
(lp4721
S'EC:2.7.2.11'
p4722
asS'TIGR03217'
p4723
(lp4724
S'EC:4.1.3.39'
p4725
asS'TIGR03216'
p4726
(lp4727
S'EC:1.2.1'
p4728
asS'TIGR03215'
p4729
(lp4730
S'EC:1.2.1.10'
p4731
asS'TIGR03079'
p4732
(lp4733
S'EC:1.14.13.25'
p4734
asS'TIGR03078'
p4735
(lp4736
S'EC:1.14.13.25'
p4737
asS'PF01855'
p4738
(lp4739
S'EC:1'
p4740
asS'TIGR03075'
p4741
(lp4742
S'EC:1.1.2'
p4743
asS'TIGR03074'
p4744
(lp4745
S'EC:1.1'
p4746
asS'TIGR00673'
p4747
(lp4748
S'EC:4.2.1.104'
p4749
asS'TIGR03671'
p4750
(lp4751
S'EC:2.7.7.25'
p4752
aS'EC:2.7.7.21'
p4753
asS'TIGR03670'
p4754
(lp4755
S'EC:2.7.7.6'
p4756
asS'TIGR03210'
p4757
(lp4758
S'EC:3.7'
p4759
asS'TIGR03674'
p4760
(lp4761
S'EC:3.1'
p4762
asS'PF06471'
p4763
(lp4764
S'EC:3.4.22'
p4765
asS'TIGR02313'
p4766
(lp4767
S'EC:4.1.2'
p4768
asS'TIGR00018'
p4769
(lp4770
S'EC:6.3.2.1'
p4771
asS'PF01993'
p4772
(lp4773
S'EC:1.12.7.2'
p4774
asS'PF01994'
p4775
(lp4776
S'EC:2.1.1'
p4777
asS'TIGR03190'
p4778
(lp4779
S'EC:1.3.7.8'
p4780
asS'PF06090'
p4781
(lp4782
S'EC:2.7.1.158'
p4783
asS'TIGR04001'
p4784
(lp4785
S'EC:3'
p4786
asS'TIGR03191'
p4787
(lp4788
S'EC:1.3.7.8'
p4789
asS'PF07307'
p4790
(lp4791
S'EC:2.5.1.30'
p4792
asS'TIGR02929'
p4793
(lp4794
S'EC:1.18.6.1'
p4795
asS'TIGR00649'
p4796
(lp4797
S'EC:3.1'
p4798
asS'PF01916'
p4799
(lp4800
S'EC:1.1.1.249'
p4801
asS'TIGR04555'
p4802
(lp4803
S'EC:1.8.2.1'
p4804
asS'TIGR03218'
p4805
(lp4806
S'EC:4.1.1.77'
p4807
asS'TIGR00641'
p4808
(lp4809
S'EC:5.4.99'
p4810
asS'PF06253'
p4811
(lp4812
S'EC:2.1.1'
p4813
asS'TIGR00643'
p4814
(lp4815
S'EC:3.6.4.12'
p4816
asS'PF03441'
p4817
(lp4818
S'EC:4.1.99'
p4819
asS'TIGR02416'
p4820
(lp4821
S'EC:1.2.99.2'
p4822
asS'TIGR02414'
p4823
(lp4824
S'EC:3.4.11.2'
p4825
asS'TIGR02415'
p4826
(lp4827
S'EC:1.1.1'
p4828
asS'TIGR02412'
p4829
(lp4830
S'EC:3.4.11.2'
p4831
asS'TIGR02843'
p4832
(lp4833
S'EC:1.10.3'
p4834
asS'TIGR02410'
p4835
(lp4836
S'EC:1.14.11.8'
p4837
asS'TIGR02411'
p4838
(lp4839
S'EC:3.3.2.6'
p4840
aS'EC:3.4.11'
p4841
asS'TIGR00482'
p4842
(lp4843
S'EC:2.7.7.18'
p4844
asS'TIGR02842'
p4845
(lp4846
S'EC:1.10.3'
p4847
asS'TIGR02418'
p4848
(lp4849
S'EC:2.2.1.6'
p4850
asS'TIGR00011'
p4851
(lp4852
S'EC:3.6.1'
p4853
asS'TIGR04105'
p4854
(lp4855
S'EC:1.12'
p4856
asS'TIGR00398'
p4857
(lp4858
S'EC:6.1.1.10'
p4859
asS'PF03583'
p4860
(lp4861
S'EC:3.1.1.3'
p4862
asS'TIGR01688'
p4863
(lp4864
S'EC:6.1.1.13'
p4865
asS'PF11837'
p4866
(lp4867
S'EC:3.2.1.48'
p4868
asS'TIGR03208'
p4869
(lp4870
S'EC:6.2.1'
p4871
asS'TIGR00016'
p4872
(lp4873
S'EC:2.7.2.1'
p4874
asS'TIGR03200'
p4875
(lp4876
S'EC:3'
p4877
asS'TIGR03201'
p4878
(lp4879
S'EC:1.1.1'
p4880
asS'TIGR00017'
p4881
(lp4882
S'EC:2.7.4.14'
p4883
asS'TIGR03204'
p4884
(lp4885
S'EC:1.3.1.62'
p4886
asS'TIGR03205'
p4887
(lp4888
S'EC:6.2.1.23'
p4889
asS'TIGR03206'
p4890
(lp4891
S'EC:1.1.1'
p4892
asS'TIGR03207'
p4893
(lp4894
S'EC:1.1.1'
p4895
asS'PF02378'
p4896
(lp4897
S'EC:2.7.1.69'
p4898
asS'PF03200'
p4899
(lp4900
S'EC:3.2.1.106'
p4901
asS'PF03201'
p4902
(lp4903
S'EC:1.12.98.2'
p4904
asS'TIGR00283'
p4905
(lp4906
S'EC:3.1.1.29'
p4907
asS'TIGR02303'
p4908
(lp4909
S'EC:4.1.1.68'
p4910
aS'EC:5.3.3.10'
p4911
asS'PF01842'
p4912
(lp4913
S'EC:1.1.1.95'
p4914
asS'TIGR02307'
p4915
(lp4916
S'EC:6.5.1.3'
p4917
asS'TIGR02305'
p4918
(lp4919
S'EC:4.1.1.68'
p4920
aS'EC:5.3.3.10'
p4921
asS'PF03590'
p4922
(lp4923
S'EC:6.3.1.1'
p4924
asS'TIGR01380'
p4925
(lp4926
S'EC:6.3.2.3'
p4927
asS'PF03598'
p4928
(lp4929
S'EC:1.2.99.2'
p4930
asS'PF14718'
p4931
(lp4932
S'EC:3.2.1'
p4933
asS'TIGR04290'
p4934
(lp4935
S'EC:2.1.1'
p4936
asS'TIGR01386'
p4937
(lp4938
S'EC:2.7.13.3'
p4939
asS'TIGR00071'
p4940
(lp4941
S'EC:5.4.99.12'
p4942
asS'PF03971'
p4943
(lp4944
S'EC:1.1.1.42'
p4945
asS'PF02975'
p4946
(lp4947
S'EC:1.4'
p4948
asS'PF02973'
p4949
(lp4950
S'EC:3.2.1.18'
p4951
asS'PF03975'
p4952
(lp4953
S'EC:3.5.1.44'
p4954
asS'PF02971'
p4955
(lp4956
S'EC:2'
p4957
asS'PF03977'
p4958
(lp4959
S'EC:4'
p4960
asS'TIGR00679'
p4961
(lp4962
S'EC:2.7.1'
p4963
asS'PF02572'
p4964
(lp4965
S'EC:2.5.1.17'
p4966
asS'PF02571'
p4967
(lp4968
S'EC:1.3.1.54'
p4969
asS'PF02570'
p4970
(lp4971
S'EC:5.4.1.2'
p4972
asS'PF02577'
p4973
(lp4974
S'EC:3.1'
p4975
asS'TIGR03848'
p4976
(lp4977
S'EC:5.4.2'
p4978
asS'PF02574'
p4979
(lp4980
S'EC:2.1.1.10'
p4981
asS'TIGR03846'
p4982
(lp4983
S'EC:4.1.1.79'
p4984
asS'TIGR03844'
p4985
(lp4986
S'EC:2.5.1.76'
p4987
asS'TIGR03845'
p4988
(lp4989
S'EC:4.1.1.79'
p4990
asS'TIGR03840'
p4991
(lp4992
S'EC:2.1.1.67'
p4993
asS'TIGR03841'
p4994
(lp4995
S'EC:1'
p4996
asS'TIGR02799'
p4997
(lp4998
S'EC:3.1.2'
p4999
asS'PF03372'
p5000
(lp5001
S'EC:3.1.3.56'
p5002
asS'PF11765'
p5003
(lp5004
S'EC:3.2.1.18'
p5005
asS'PF11762'
p5006
(lp5007
S'EC:5.3.1.4'
p5008
asS'TIGR01543'
p5009
(lp5010
S'EC:3.4'
p5011
asS'TIGR01112'
p5012
(lp5013
S'EC:2.1.1.86'
p5014
asS'PF07827'
p5015
(lp5016
S'EC:2.7.7'
p5017
asS'PF02882'
p5018
(lp5019
S'EC:1.5.1.5'
p5020
asS'PF02880'
p5021
(lp5022
S'EC:5.4.2'
p5023
asS'PF02884'
p5024
(lp5025
S'EC:4.2.2.1'
p5026
asS'PF00959'
p5027
(lp5028
S'EC:3.2.1.17'
p5029
asS'PF00958'
p5030
(lp5031
S'EC:6.3.5.2'
p5032
asS'PF02799'
p5033
(lp5034
S'EC:2.3.1.97'
p5035
asS'PF05351'
p5036
(lp5037
S'EC:3.1.4.35'
p5038
asS'PF00953'
p5039
(lp5040
S'EC:2.7.8.13'
p5041
asS'PF02794'
p5042
(lp5043
S'EC:2.3'
p5044
asS'PF01408'
p5045
(lp5046
S'EC:1'
p5047
asS'PF07823'
p5048
(lp5049
S'EC:3.1.4'
p5050
asS'PF05165'
p5051
(lp5052
S'EC:3.5.4'
p5053
asS'PF02153'
p5054
(lp5055
S'EC:1.3.1.12'
p5056
asS'PF02152'
p5057
(lp5058
S'EC:4.1.2.25'
p5059
asS'TIGR01114'
p5060
(lp5061
S'EC:2.1.1.86'
p5062
asS'PF02156'
p5063
(lp5064
S'EC:3.2.1'
p5065
asS'PF02407'
p5066
(lp5067
S'EC:2.7.7'
p5068
asS'PF02406'
p5069
(lp5070
S'EC:1.14.13.25'
p5071
asS'TIGR02361'
p5072
(lp5073
S'EC:2.7.1.29'
p5074
asS'PF05683'
p5075
(lp5076
S'EC:4.2.1.2'
p5077
asS'PF02401'
p5078
(lp5079
S'EC:1.17.1.2'
p5080
asS'TIGR00133'
p5081
(lp5082
S'EC:6.3.5'
p5083
asS'TIGR00132'
p5084
(lp5085
S'EC:6.3.5'
p5086
asS'TIGR00131'
p5087
(lp5088
S'EC:2.7.1.6'
p5089
asS'PF14010'
p5090
(lp5091
S'EC:4.1.1.31'
p5092
asS'TIGR00137'
p5093
(lp5094
S'EC:2.1.1.74'
p5095
asS'TIGR00135'
p5096
(lp5097
S'EC:6.3.5'
p5098
asS'TIGR00134'
p5099
(lp5100
S'EC:6.3.5'
p5101
asS'TIGR00139'
p5102
(lp5103
S'EC:4.2.1.36'
p5104
asS'TIGR00138'
p5105
(lp5106
S'EC:2.1.1.170'
p5107
asS'TIGR01523'
p5108
(lp5109
S'EC:3.6.3'
p5110
asS'TIGR01522'
p5111
(lp5112
S'EC:3.6.3.8'
p5113
asS'TIGR01521'
p5114
(lp5115
S'EC:4.1.2.13'
p5116
asS'TIGR01520'
p5117
(lp5118
S'EC:4.1.2.13'
p5119
asS'PF00834'
p5120
(lp5121
S'EC:5.1.3'
p5122
asS'TIGR01526'
p5123
(lp5124
S'EC:2.7.7.1'
p5125
asS'TIGR01525'
p5126
(lp5127
S'EC:3.6.3'
p5128
asS'PF00837'
p5129
(lp5130
S'EC:1.97.1.10'
p5131
asS'PF16923'
p5132
(lp5133
S'EC:3.2.1.106'
p5134
asS'PF04800'
p5135
(lp5136
S'EC:1.6.5.3'
p5137
asS'PF04805'
p5138
(lp5139
S'EC:1.8.3.2'
p5140
asS'PF07477'
p5141
(lp5142
S'EC:3.2.1.139'
p5143
asS'PF09266'
p5144
(lp5145
S'EC:5.99.1'
p5146
asS'PF09265'
p5147
(lp5148
S'EC:1.5.99.12'
p5149
asS'PF09260'
p5150
(lp5151
S'EC:3.2.1.1'
p5152
asS'PF09261'
p5153
(lp5154
S'EC:3.2.1'
p5155
asS'PF01050'
p5156
(lp5157
S'EC:2.7.7'
p5158
asS'PF01055'
p5159
(lp5160
S'EC:3.2.1'
p5161
asS'PF08022'
p5162
(lp5163
S'EC:1'
p5164
asS'TIGR04036'
p5165
(lp5166
S'EC:1'
p5167
asS'TIGR04037'
p5168
(lp5169
S'EC:1'
p5170
asS'PF08029'
p5171
(lp5172
S'EC:2.4.2.17'
p5173
asS'TIGR02932'
p5174
(lp5175
S'EC:1.18.6.1'
p5176
asS'TIGR02720'
p5177
(lp5178
S'EC:1.2.3.3'
p5179
asS'TIGR00007'
p5180
(lp5181
S'EC:5.3.1.16'
p5182
asS'TIGR00006'
p5183
(lp5184
S'EC:2.1.1.199'
p5185
asS'TIGR00005'
p5186
(lp5187
S'EC:5.4.99'
p5188
asS'TIGR03997'
p5189
(lp5190
S'EC:1'
p5191
asS'PF01630'
p5192
(lp5193
S'EC:3.2.1.35'
p5194
asS'PF11380'
p5195
(lp5196
S'EC:2.7'
p5197
asS'PF09040'
p5198
(lp5199
S'EC:3.6.3.10'
p5200
asS'TIGR01237'
p5201
(lp5202
S'EC:1.2.1.88'
p5203
asS'PF01234'
p5204
(lp5205
S'EC:2.1.1'
p5206
asS'TIGR01235'
p5207
(lp5208
S'EC:6.4.1.1'
p5209
asS'PF00639'
p5210
(lp5211
S'EC:5'
p5212
asS'TIGR01233'
p5213
(lp5214
S'EC:3.2.1.85'
p5215
asS'TIGR01232'
p5216
(lp5217
S'EC:4.1.2.40'
p5218
asS'PF01233'
p5219
(lp5220
S'EC:2.3.1.97'
p5221
asS'PF01232'
p5222
(lp5223
S'EC:1'
p5224
asS'PF01239'
p5225
(lp5226
S'EC:2.5.1'
p5227
asS'PF01238'
p5228
(lp5229
S'EC:5.3.1.8'
p5230
asS'TIGR01239'
p5231
(lp5232
S'EC:2.7.7.12'
p5233
asS'TIGR04480'
p5234
(lp5235
S'EC:1.21.4.1'
p5236
asS'PF04336'
p5237
(lp5238
S'EC:3.1.4.14'
p5239
asS'TIGR02966'
p5240
(lp5241
S'EC:2.7.3'
p5242
asS'PF05221'
p5243
(lp5244
S'EC:3.3.1.1'
p5245
asS'TIGR00414'
p5246
(lp5247
S'EC:6.1.1.11'
p5248
asS'TIGR03686'
p5249
(lp5250
S'EC:6.3.2'
p5251
asS'TIGR03683'
p5252
(lp5253
S'EC:6.1.1.7'
p5254
asS'TIGR03688'
p5255
(lp5256
S'EC:6.3.2'
p5257
asS'PF01546'
p5258
(lp5259
S'EC:3'
p5260
asS'TIGR03443'
p5261
(lp5262
S'EC:1.2.1.31'
p5263
asS'PF00494'
p5264
(lp5265
S'EC:2'
p5266
asS'PF08716'
p5267
(lp5268
S'EC:3.4.22'
p5269
asS'PF08485'
p5270
(lp5271
S'EC:5.1.3.2'
p5272
asS'PF05821'
p5273
(lp5274
S'EC:1.6.5.3'
p5275
asS'PF00490'
p5276
(lp5277
S'EC:4.2.1.24'
p5278
asS'TIGR04325'
p5279
(lp5280
S'EC:2.1.1'
p5281
asS'TIGR00313'
p5282
(lp5283
S'EC:6.3.5.10'
p5284
asS'PF08488'
p5285
(lp5286
S'EC:2.7.11'
p5287
asS'PF08335'
p5288
(lp5289
S'EC:2.7.7.59'
p5290
asS'PF10371'
p5291
(lp5292
S'EC:1.2'
p5293
asS'TIGR00317'
p5294
(lp5295
S'EC:2.7.8.26'
p5296
asS'PF08332'
p5297
(lp5298
S'EC:2.7.11.17'
p5299
asS'TIGR00315'
p5300
(lp5301
S'EC:1.2.99.2'
p5302
asS'PF00499'
p5303
(lp5304
S'EC:1.6.5.3'
p5305
asS'PF00120'
p5306
(lp5307
S'EC:6.3.1.2'
p5308
asS'PF00121'
p5309
(lp5310
S'EC:5.3.1.1'
p5311
asS'TIGR01302'
p5312
(lp5313
S'EC:1.1.1.205'
p5314
asS'TIGR01307'
p5315
(lp5316
S'EC:5.4.2.12'
p5317
asS'TIGR01306'
p5318
(lp5319
S'EC:1.7.1.7'
p5320
asS'TIGR01305'
p5321
(lp5322
S'EC:1.7.1.7'
p5323
asS'TIGR03413'
p5324
(lp5325
S'EC:3.1.2.6'
p5326
asS'TIGR03283'
p5327
(lp5328
S'EC:2.1.1'
p5329
asS'TIGR03284'
p5330
(lp5331
S'EC:2.1.1.45'
p5332
asS'PF04072'
p5333
(lp5334
S'EC:2.1.1'
p5335
asS'TIGR02643'
p5336
(lp5337
S'EC:2.4.2.4'
p5338
asS'PF04666'
p5339
(lp5340
S'EC:2.4.1.145'
p5341
asS'TIGR02645'
p5342
(lp5343
S'EC:2.4.2.4'
p5344
asS'TIGR02644'
p5345
(lp5346
S'EC:2.4.2.2'
p5347
asS'PF00306'
p5348
(lp5349
S'EC:3.6.3'
p5350
asS'TIGR02649'
p5351
(lp5352
S'EC:3.1'
p5353
asS'PF00305'
p5354
(lp5355
S'EC:1.13.11'
p5356
asS'PF00302'
p5357
(lp5358
S'EC:2.3.1.28'
p5359
asS'PF07463'
p5360
(lp5361
S'EC:3.1'
p5362
asS'PF04075'
p5363
(lp5364
S'EC:1'
p5365
asS'TIGR04146'
p5366
(lp5367
S'EC:2.5.1.41'
p5368
asS'TIGR04147'
p5369
(lp5370
S'EC:2.5.1.41'
p5371
asS'TIGR04144'
p5372
(lp5373
S'EC:3.4.22'
p5374
asS'PF04464'
p5375
(lp5376
S'EC:2.7.8.12'
p5377
asS'PF14823'
p5378
(lp5379
S'EC:4.99.1.4'
p5380
asS'PF02917'
p5381
(lp5382
S'EC:2.4.2.30'
p5383
asS'TIGR00441'
p5384
(lp5385
S'EC:5.3.1.28'
p5386
asS'TIGR00263'
p5387
(lp5388
S'EC:4.2.1.20'
p5389
asS'TIGR00262'
p5390
(lp5391
S'EC:4.2.1.20'
p5392
asS'PF02910'
p5393
(lp5394
S'EC:1'
p5395
asS'PF03446'
p5396
(lp5397
S'EC:1.1.1.44'
p5398
asS'TIGR01019'
p5399
(lp5400
S'EC:6.2.1'
p5401
asS'TIGR01016'
p5402
(lp5403
S'EC:6.2.1'
p5404
asS'TIGR01015'
p5405
(lp5406
S'EC:1.13.11.5'
p5407
asS'PF00548'
p5408
(lp5409
S'EC:3.4.22'
p5410
asS'TIGR02308'
p5411
(lp5412
S'EC:6.5.1.3'
p5413
asS'TIGR00309'
p5414
(lp5415
S'EC:3.6.3.14'
p5416
asS'PF06315'
p5417
(lp5418
S'EC:2.7.11.5'
p5419
asS'PF06314'
p5420
(lp5421
S'EC:4.1.1.4'
p5422
asS'TIGR01135'
p5423
(lp5424
S'EC:2.6.1.16'
p5425
asS'TIGR03064'
p5426
(lp5427
S'EC:3.4.22.71'
p5428
asS'TIGR00448'
p5429
(lp5430
S'EC:2.7.7.6'
p5431
asS'PF08494'
p5432
(lp5433
S'EC:3.6.1'
p5434
asS'TIGR02790'
p5435
(lp5436
S'EC:3.6.3.24'
p5437
asS'TIGR02792'
p5438
(lp5439
S'EC:1.13.11.8'
p5440
asS'TIGR03666'
p5441
(lp5442
S'EC:1'
p5443
asS'TIGR03667'
p5444
(lp5445
S'EC:1'
p5446
asS'TIGR03664'
p5447
(lp5448
S'EC:3.2.2.26'
p5449
asS'PF10394'
p5450
(lp5451
S'EC:2.3.1.48'
p5452
asS'TIGR04318'
p5453
(lp5454
S'EC:4.1.1'
p5455
asS'PF10399'
p5456
(lp5457
S'EC:1.10.2.2'
p5458
asS'TIGR02460'
p5459
(lp5460
S'EC:2.4.1.217'
p5461
asS'TIGR02429'
p5462
(lp5463
S'EC:2.8.3'
p5464
asS'TIGR02428'
p5465
(lp5466
S'EC:2.8.3'
p5467
asS'PF12437'
p5468
(lp5469
S'EC:6.3.1.2'
p5470
asS'TIGR00658'
p5471
(lp5472
S'EC:2.1.3.3'
p5473
asS'TIGR02423'
p5474
(lp5475
S'EC:1.13.11.3'
p5476
asS'TIGR02422'
p5477
(lp5478
S'EC:1.13.11.3'
p5479
asS'TIGR00655'
p5480
(lp5481
S'EC:3.5.1.10'
p5482
asS'TIGR02427'
p5483
(lp5484
S'EC:3.1.1.24'
p5485
asS'TIGR02426'
p5486
(lp5487
S'EC:5.5.1.2'
p5488
asS'TIGR02425'
p5489
(lp5490
S'EC:4.1.1.44'
p5491
asS'TIGR00651'
p5492
(lp5493
S'EC:2.3.1.8'
p5494
asS'PF14651'
p5495
(lp5496
S'EC:5.3.99.2'
p5497
asS'TIGR00499'
p5498
(lp5499
S'EC:6.1.1.6'
p5500
asS'TIGR00497'
p5501
(lp5502
S'EC:2.1.1.72'
p5503
asS'TIGR04377'
p5504
(lp5505
S'EC:3.7.1'
p5506
asS'TIGR00492'
p5507
(lp5508
S'EC:5.1.1.1'
p5509
asS'TIGR00493'
p5510
(lp5511
S'EC:3.4.21.92'
p5512
asS'TIGR01314'
p5513
(lp5514
S'EC:2.7.1.12'
p5515
asS'PF02366'
p5516
(lp5517
S'EC:2.4.1.109'
p5518
asS'TIGR01830'
p5519
(lp5520
S'EC:1.1.1.100'
p5521
asS'PF02364'
p5522
(lp5523
S'EC:2.4.1.34'
p5524
asS'PF06134'
p5525
(lp5526
S'EC:5.3.1.14'
p5527
asS'TIGR01835'
p5528
(lp5529
S'EC:2.3.3.10'
p5530
asS'PF06130'
p5531
(lp5532
S'EC:2.3.1'
p5533
asS'PF12387'
p5534
(lp5535
S'EC:3.4.21'
p5536
asS'TIGR00376'
p5537
(lp5538
S'EC:3.6.4.12'
p5539
asS'PF12549'
p5540
(lp5541
S'EC:1.14.16.2'
p5542
asS'PF01704'
p5543
(lp5544
S'EC:2.7.7.9'
p5545
asS'PF01832'
p5546
(lp5547
S'EC:3.2.1.96'
p5548
asS'PF03767'
p5549
(lp5550
S'EC:3.1.3.2'
p5551
asS'PF01830'
p5552
(lp5553
S'EC:3.4.22'
p5554
asS'TIGR02333'
p5555
(lp5556
S'EC:4.2.1.99'
p5557
asS'PF04551'
p5558
(lp5559
S'EC:1.17.7.1'
p5560
asS'TIGR02330'
p5561
(lp5562
S'EC:4.2.1.79'
p5563
asS'TIGR00780'
p5564
(lp5565
S'EC:1.9.3.1'
p5566
asS'TIGR00781'
p5567
(lp5568
S'EC:1.9.3.1'
p5569
asS'TIGR00782'
p5570
(lp5571
S'EC:1.9.3.1'
p5572
asS'PF14724'
p5573
(lp5574
S'EC:3.1.4.41'
p5575
asS'PF03568'
p5576
(lp5577
S'EC:3.4'
p5578
asS'PF03567'
p5579
(lp5580
S'EC:2.8.2'
p5581
asS'PF03562'
p5582
(lp5583
S'EC:3.2.1'
p5584
asS'PF03561'
p5585
(lp5586
S'EC:3.5.3.4'
p5587
asS'PF03786'
p5588
(lp5589
S'EC:4.2.1.8'
p5590
asS'PF03785'
p5591
(lp5592
S'EC:3.4'
p5593
asS'PF02964'
p5594
(lp5595
S'EC:1.14.13.25'
p5596
asS'PF02965'
p5597
(lp5598
S'EC:2.1.1.13'
p5599
asS'TIGR02003'
p5600
(lp5601
S'EC:2.7.1.69'
p5602
asS'PF02962'
p5603
(lp5604
S'EC:5.3.3.10'
p5605
asS'TIGR02258'
p5606
(lp5607
S'EC:6.5.1'
p5608
asS'TIGR02259'
p5609
(lp5610
S'EC:1.3.7.8'
p5611
asS'TIGR02002'
p5612
(lp5613
S'EC:2.7.1.69'
p5614
asS'TIGR01780'
p5615
(lp5616
S'EC:1.2.1'
p5617
asS'TIGR02250'
p5618
(lp5619
S'EC:3.1.3.16'
p5620
asS'PF02099'
p5621
(lp5622
S'EC:3.4.19'
p5623
asS'TIGR02254'
p5624
(lp5625
S'EC:3.1.3.5'
p5626
asS'TIGR01788'
p5627
(lp5628
S'EC:4.1.1.15'
p5629
asS'PF02560'
p5630
(lp5631
S'EC:4.2.1.104'
p5632
asS'TIGR02067'
p5633
(lp5634
S'EC:3.1.3.15'
p5635
asS'TIGR03305'
p5636
(lp5637
S'EC:3.6.3'
p5638
asS'PF01941'
p5639
(lp5640
S'EC:2.5.1.6'
p5641
asS'TIGR03306'
p5642
(lp5643
S'EC:3.6.3'
p5644
asS'PF02568'
p5645
(lp5646
S'EC:2.7.7.25'
p5647
asS'PF02569'
p5648
(lp5649
S'EC:6.3.2.1'
p5650
asS'TIGR00876'
p5651
(lp5652
S'EC:2.2.1.2'
p5653
asS'TIGR00877'
p5654
(lp5655
S'EC:6.3.4.13'
p5656
asS'PF03309'
p5657
(lp5658
S'EC:2.7.1.33'
p5659
asS'TIGR00875'
p5660
(lp5661
S'EC:4.1.2'
p5662
asS'TIGR00872'
p5663
(lp5664
S'EC:1.1.1.44'
p5665
asS'TIGR00873'
p5666
(lp5667
S'EC:1.1.1.44'
p5668
asS'TIGR00871'
p5669
(lp5670
S'EC:1.1.1.49'
p5671
asS'TIGR00118'
p5672
(lp5673
S'EC:2.2.1.6'
p5674
asS'PF03301'
p5675
(lp5676
S'EC:1.13.11.11'
p5677
asS'PF03306'
p5678
(lp5679
S'EC:4.1.1.5'
p5680
asS'TIGR00878'
p5681
(lp5682
S'EC:6.3.3.1'
p5683
asS'TIGR03241'
p5684
(lp5685
S'EC:3.5.3.23'
p5686
asS'PF02769'
p5687
(lp5688
S'EC:6.3.3.1'
p5689
asS'TIGR03242'
p5690
(lp5691
S'EC:3.5.1.96'
p5692
asS'TIGR03895'
p5693
(lp5694
S'EC:3.4.21'
p5695
asS'PF02898'
p5696
(lp5697
S'EC:1.14.13.39'
p5698
asS'PF04928'
p5699
(lp5700
S'EC:2.7.7.19'
p5701
asS'PF04922'
p5702
(lp5703
S'EC:2.4.1'
p5704
asS'PF00947'
p5705
(lp5706
S'EC:3.4'
p5707
asS'PF02894'
p5708
(lp5709
S'EC:1'
p5710
asS'PF02895'
p5711
(lp5712
S'EC:2.7.3'
p5713
asS'PF02896'
p5714
(lp5715
S'EC:2.7'
p5716
asS'PF02897'
p5717
(lp5718
S'EC:3.4.21'
p5719
asS'PF00949'
p5720
(lp5721
S'EC:2.7.7'
p5722
asS'PF02788'
p5723
(lp5724
S'EC:4.1.1.39'
p5725
asS'PF02789'
p5726
(lp5727
S'EC:3.4.11'
p5728
asS'TIGR01651'
p5729
(lp5730
S'EC:6.6.1.2'
p5731
asS'PF00941'
p5732
(lp5733
S'EC:1'
p5734
asS'TIGR01652'
p5735
(lp5736
S'EC:3.6.3.1'
p5737
asS'PF00944'
p5738
(lp5739
S'EC:3.4.21'
p5740
asS'PF02781'
p5741
(lp5742
S'EC:1.1.1.49'
p5743
asS'PF02782'
p5744
(lp5745
S'EC:2.7.1'
p5746
asS'PF02783'
p5747
(lp5748
S'EC:2.8.4.1'
p5749
asS'PF03414'
p5750
(lp5751
S'EC:2.4.1'
p5752
asS'PF03412'
p5753
(lp5754
S'EC:3.4'
p5755
asS'PF03411'
p5756
(lp5757
S'EC:3.4.21'
p5758
asS'PF03410'
p5759
(lp5760
S'EC:3.4.24'
p5761
asS'PF08241'
p5762
(lp5763
S'EC:2.1.1'
p5764
asS'PF03949'
p5765
(lp5766
S'EC:1.1.1.38'
p5767
asS'PF03419'
p5768
(lp5769
S'EC:3.4.23'
p5770
asS'PF03418'
p5771
(lp5772
S'EC:3.4'
p5773
asS'TIGR00124'
p5774
(lp5775
S'EC:6.2.1.22'
p5776
asS'TIGR00126'
p5777
(lp5778
S'EC:4.1.2.4'
p5779
asS'TIGR00127'
p5780
(lp5781
S'EC:1.1.1.42'
p5782
asS'TIGR00120'
p5783
(lp5784
S'EC:2.3.1.35'
p5785
aS'EC:2.3.1.1'
p5786
asS'TIGR00121'
p5787
(lp5788
S'EC:6.3.4.15'
p5789
asS'PF09328'
p5790
(lp5791
S'EC:2.3.2.15'
p5792
asS'PF09326'
p5793
(lp5794
S'EC:1.6.99.5'
p5795
asS'PF09456'
p5796
(lp5797
S'EC:2.7.13.3'
p5798
asS'TIGR00128'
p5799
(lp5800
S'EC:2.3.1.39'
p5801
asS'PF04816'
p5802
(lp5803
S'EC:2.1.1'
p5804
asS'PF05693'
p5805
(lp5806
S'EC:2.4.1.11'
p5807
asS'TIGR00115'
p5808
(lp5809
S'EC:5.2.1.8'
p5810
asS'TIGR01821'
p5811
(lp5812
S'EC:2.3.1.37'
p5813
asS'PF00809'
p5814
(lp5815
S'EC:2.5.1.15'
p5816
asS'PF11629'
p5817
(lp5818
S'EC:2.7.11'
p5819
asS'TIGR02495'
p5820
(lp5821
S'EC:1.97'
p5822
asS'PF00800'
p5823
(lp5824
S'EC:4.2.1.51'
p5825
asS'TIGR00614'
p5826
(lp5827
S'EC:3.6.4.12'
p5828
asS'PF01040'
p5829
(lp5830
S'EC:2.5.1'
p5831
asS'PF01041'
p5832
(lp5833
S'EC:2.6.1.50'
p5834
asS'PF10716'
p5835
(lp5836
S'EC:1.6.5'
p5837
asS'PF08369'
p5838
(lp5839
S'EC:1'
p5840
asS'PF05035'
p5841
(lp5842
S'EC:2.7.1.58'
p5843
asS'PF05034'
p5844
(lp5845
S'EC:4.3.1.2'
p5846
asS'PF05033'
p5847
(lp5848
S'EC:2.1.1.43'
p5849
asS'PF08030'
p5850
(lp5851
S'EC:1'
p5852
asS'PF08031'
p5853
(lp5854
S'EC:1'
p5855
asS'PF08032'
p5856
(lp5857
S'EC:2.1.1'
p5858
asS'TIGR04000'
p5859
(lp5860
S'EC:3'
p5861
asS'PF04258'
p5862
(lp5863
S'EC:3.4.23'
p5864
asS'TIGR04006'
p5865
(lp5866
S'EC:2'
p5867
asS'TIGR04005'
p5868
(lp5869
S'EC:2.4'
p5870
asS'TIGR04559'
p5871
(lp5872
S'EC:3'
p5873
asS'TIGR02923'
p5874
(lp5875
S'EC:3.6.3.14'
p5876
asS'TIGR04009'
p5877
(lp5878
S'EC:2.4'
p5879
asS'TIGR04008'
p5880
(lp5881
S'EC:2.3.1'
p5882
asS'TIGR02926'
p5883
(lp5884
S'EC:3.6.3.14'
p5885
asS'TIGR02927'
p5886
(lp5887
S'EC:2.3.1.61'
p5888
asS'TIGR02924'
p5889
(lp5890
S'EC:1.1.1'
p5891
asS'TIGR02925'
p5892
(lp5893
S'EC:5.2.1.8'
p5894
asS'TIGR01228'
p5895
(lp5896
S'EC:4.2.1.49'
p5897
asS'TIGR01229'
p5898
(lp5899
S'EC:3.5.3.1'
p5900
asS'TIGR02461'
p5901
(lp5902
S'EC:3.1.3.70'
p5903
asS'TIGR01220'
p5904
(lp5905
S'EC:2.7.4.2'
p5906
asS'TIGR01221'
p5907
(lp5908
S'EC:5.1.3.13'
p5909
asS'PF09030'
p5910
(lp5911
S'EC:2.3.1.48'
p5912
asS'TIGR01224'
p5913
(lp5914
S'EC:3.5.2.7'
p5915
asS'PF09036'
p5916
(lp5917
S'EC:2.7.11'
p5918
asS'TIGR01226'
p5919
(lp5920
S'EC:4.3.1.24'
p5921
asS'TIGR01227'
p5922
(lp5923
S'EC:3.5.3.8'
p5924
asS'PF01223'
p5925
(lp5926
S'EC:3'
p5927
asS'PF01220'
p5928
(lp5929
S'EC:4.2.1.10'
p5930
asS'TIGR00577'
p5931
(lp5932
S'EC:3.2.2.23'
p5933
asS'PF01229'
p5934
(lp5935
S'EC:3.2.1'
p5936
asS'TIGR00574'
p5937
(lp5938
S'EC:6.5.1.1'
p5939
asS'PF05257'
p5940
(lp5941
S'EC:3.5.1.78'
p5942
asS'PF01558'
p5943
(lp5944
S'EC:1.2'
p5945
asS'TIGR00379'
p5946
(lp5947
S'EC:6.3.1'
p5948
asS'PF01552'
p5949
(lp5950
S'EC:3.4'
p5951
asS'PF01553'
p5952
(lp5953
S'EC:2.3'
p5954
asS'PF01555'
p5955
(lp5956
S'EC:2.1.1'
p5957
asS'TIGR04316'
p5958
(lp5959
S'EC:1.3.1.28'
p5960
asS'TIGR04315'
p5961
(lp5962
S'EC:1'
p5963
asS'PF08328'
p5964
(lp5965
S'EC:4.3.2.2'
p5966
asS'PF08329'
p5967
(lp5968
S'EC:3.2.1.14'
p5969
asS'PF08498'
p5970
(lp5971
S'EC:2.1.1'
p5972
asS'PF08499'
p5973
(lp5974
S'EC:3.1.4.17'
p5975
asS'PF08496'
p5976
(lp5977
S'EC:3.4.21'
p5978
asS'TIGR00274'
p5979
(lp5980
S'EC:4.2.1.126'
p5981
asS'PF08326'
p5982
(lp5983
S'EC:6.4.1.2'
p5984
asS'PF08491'
p5985
(lp5986
S'EC:1.14.13.132'
p5987
asS'PF00150'
p5988
(lp5989
S'EC:3.2.1'
p5990
asS'PF00156'
p5991
(lp5992
S'EC:2.4.2.22'
p5993
asS'TIGR00110'
p5994
(lp5995
S'EC:4.2.1.9'
p5996
asS'TIGR01315'
p5997
(lp5998
S'EC:2.7.1'
p5999
asS'TIGR01316'
p6000
(lp6001
S'EC:1.4.1.13'
p6002
asS'TIGR01317'
p6003
(lp6004
S'EC:1.4.1'
p6005
asS'TIGR01311'
p6006
(lp6007
S'EC:2.7.1.30'
p6008
asS'TIGR01312'
p6009
(lp6010
S'EC:2.7.1.17'
p6011
asS'TIGR01313'
p6012
(lp6013
S'EC:2.7.1'
p6014
asS'PF00795'
p6015
(lp6016
S'EC:3.5.1.12'
p6017
asS'TIGR01163'
p6018
(lp6019
S'EC:5.1.3.1'
p6020
asS'PF00797'
p6021
(lp6022
S'EC:2.3.1'
p6023
asS'PF00793'
p6024
(lp6025
S'EC:2.5.1.54'
p6026
asS'PF01314'
p6027
(lp6028
S'EC:1.2.7'
p6029
asS'TIGR02655'
p6030
(lp6031
S'EC:2.7.11.1'
p6032
asS'TIGR02650'
p6033
(lp6034
S'EC:3.1.26.11'
p6035
asS'TIGR02651'
p6036
(lp6037
S'EC:3.1.26.11'
p6038
asS'TIGR04171'
p6039
(lp6040
S'EC:1.17.4.1'
p6041
asS'PF00370'
p6042
(lp6043
S'EC:2.7.1'
p6044
asS'TIGR04177'
p6045
(lp6046
S'EC:3.4.22'
p6047
asS'TIGR02659'
p6048
(lp6049
S'EC:1.4.9.1'
p6050
asS'TIGR04175'
p6051
(lp6052
S'EC:3.4.22'
p6053
asS'TIGR03849'
p6054
(lp6055
S'EC:4.4.1.19'
p6056
asS'PF07780'
p6057
(lp6058
S'EC:2.1.1'
p6059
asS'PF14467'
p6060
(lp6061
S'EC:3.6.1.15'
p6062
asS'TIGR03152'
p6063
(lp6064
S'EC:1.7.2.2'
p6065
asS'PF08147'
p6066
(lp6067
S'EC:3.6.1'
p6068
asS'TIGR00112'
p6069
(lp6070
S'EC:1.5.1.2'
p6071
asS'TIGR00276'
p6072
(lp6073
S'EC:1'
p6074
asS'TIGR01368'
p6075
(lp6076
S'EC:6.3.5.5'
p6077
asS'PF12899'
p6078
(lp6079
S'EC:3.2.1.97'
p6080
asS'TIGR01001'
p6081
(lp6082
S'EC:2.3.1.46'
p6083
asS'PF00578'
p6084
(lp6085
S'EC:1'
p6086
asS'PF00202'
p6087
(lp6088
S'EC:2.6.1'
p6089
asS'PF00201'
p6090
(lp6091
S'EC:2.4.1'
p6092
asS'PF00208'
p6093
(lp6094
S'EC:1'
p6095
asS'TIGR01452'
p6096
(lp6097
S'EC:3.1.3.18'
p6098
asS'TIGR02785'
p6099
(lp6100
S'EC:3.1'
p6101
aS'EC:3.6.4.12'
p6102
asS'TIGR01364'
p6103
(lp6104
S'EC:2.6.1.52'
p6105
asS'PF06415'
p6106
(lp6107
S'EC:5.4.2.1'
p6108
asS'PF06418'
p6109
(lp6110
S'EC:6.3.4.2'
p6111
asS'TIGR01073'
p6112
(lp6113
S'EC:3.6.4.12'
p6114
asS'TIGR00663'
p6115
(lp6116
S'EC:2.7.7.7'
p6117
asS'PF03171'
p6118
(lp6119
S'EC:1.14.11.2'
p6120
asS'PF03173'
p6121
(lp6122
S'EC:3.2.1.52'
p6123
asS'PF12424'
p6124
(lp6125
S'EC:3.6.3.8'
p6126
asS'TIGR00666'
p6127
(lp6128
S'EC:3.4.16.4'
p6129
asS'TIGR00665'
p6130
(lp6131
S'EC:3.6.4.12'
p6132
asS'TIGR00664'
p6133
(lp6134
S'EC:2.7.7.7'
p6135
asS'TIGR02434'
p6136
(lp6137
S'EC:2.1.1.152'
p6138
asS'TIGR02435'
p6139
(lp6140
S'EC:1.14.13.83'
p6141
asS'TIGR00669'
p6142
(lp6143
S'EC:6.3.1.1'
p6144
asS'TIGR02437'
p6145
(lp6146
S'EC:4.2.1.17'
p6147
aS'EC:5.3.3.8'
p6148
aS'EC:1.1.1.35'
p6149
aS'EC:5.1.2.3'
p6150
asS'TIGR02430'
p6151
(lp6152
S'EC:2.3.1.174'
p6153
asS'TIGR02432'
p6154
(lp6155
S'EC:6.3.4'
p6156
asS'TIGR02433'
p6157
(lp6158
S'EC:6'
p6159
asS'TIGR00461'
p6160
(lp6161
S'EC:1.4.4.2'
p6162
asS'TIGR00460'
p6163
(lp6164
S'EC:2.1.2.9'
p6165
asS'TIGR00463'
p6166
(lp6167
S'EC:6.1.1.17'
p6168
asS'TIGR02208'
p6169
(lp6170
S'EC:2.3.1'
p6171
asS'TIGR00465'
p6172
(lp6173
S'EC:1.1.1.86'
p6174
asS'TIGR00464'
p6175
(lp6176
S'EC:6.1.1.17'
p6177
asS'TIGR00467'
p6178
(lp6179
S'EC:6.1.1.6'
p6180
asS'TIGR00466'
p6181
(lp6182
S'EC:2.7.7.38'
p6183
asS'TIGR00469'
p6184
(lp6185
S'EC:6.1.1.20'
p6186
asS'TIGR00468'
p6187
(lp6188
S'EC:6.1.1.20'
p6189
asS'PF14489'
p6190
(lp6191
S'EC:1.7.1.13'
p6192
asS'PF11857'
p6193
(lp6194
S'EC:3.4.24'
p6195
asS'TIGR01822'
p6196
(lp6197
S'EC:2.3.1.29'
p6198
asS'TIGR02092'
p6199
(lp6200
S'EC:2.7.7.27'
p6201
asS'PF12398'
p6202
(lp6203
S'EC:2.7.11'
p6204
asS'PF01874'
p6205
(lp6206
S'EC:2.7.8.25'
p6207
asS'PF02317'
p6208
(lp6209
S'EC:1'
p6210
asS'PF02315'
p6211
(lp6212
S'EC:1.1.1.1'
p6213
asS'TIGR01825'
p6214
(lp6215
S'EC:2.3.1'
p6216
asS'PF13145'
p6217
(lp6218
S'EC:5'
p6219
asS'TIGR01828'
p6220
(lp6221
S'EC:2.7.9.1'
p6222
asS'TIGR01829'
p6223
(lp6224
S'EC:1.1.1.36'
p6225
asS'TIGR03263'
p6226
(lp6227
S'EC:2.7.4.8'
p6228
asS'TIGR03234'
p6229
(lp6230
S'EC:5.3.1.22'
p6231
asS'PF01828'
p6232
(lp6233
S'EC:3.4.23'
p6234
asS'PF01829'
p6235
(lp6236
S'EC:3.4.23'
p6237
asS'PF12558'
p6238
(lp6239
S'EC:3.6.3'
p6240
asS'PF13508'
p6241
(lp6242
S'EC:2.3.1'
p6243
asS'TIGR02326'
p6244
(lp6245
S'EC:2.6.1.37'
p6246
asS'PF01820'
p6247
(lp6248
S'EC:6.3.2.4'
p6249
asS'PF03770'
p6250
(lp6251
S'EC:2.7.1.127'
p6252
asS'TIGR02622'
p6253
(lp6254
S'EC:4.2.1.45'
p6255
asS'PF14736'
p6256
(lp6257
S'EC:3.5.1'
p6258
asS'TIGR02625'
p6259
(lp6260
S'EC:5.1.3'
p6261
asS'PF03577'
p6262
(lp6263
S'EC:3.4.13'
p6264
asS'TIGR01798'
p6265
(lp6266
S'EC:2.3.3.1'
p6267
asS'TIGR01799'
p6268
(lp6269
S'EC:5.4.99.5'
p6270
asS'TIGR00014'
p6271
(lp6272
S'EC:1.20.4.1'
p6273
asS'TIGR01596'
p6274
(lp6275
S'EC:3.1'
p6276
asS'PF02951'
p6277
(lp6278
S'EC:6.3.2.3'
p6279
asS'TIGR01791'
p6280
(lp6281
S'EC:5.4.99.5'
p6282
asS'TIGR04265'
p6283
(lp6284
S'EC:2.7.8'
p6285
asS'PF02952'
p6286
(lp6287
S'EC:5.3.1.25'
p6288
asS'PF02955'
p6289
(lp6290
S'EC:6.3.2.3'
p6291
asS'TIGR01795'
p6292
(lp6293
S'EC:5.4.99.5'
p6294
asS'TIGR01796'
p6295
(lp6296
S'EC:5.4.99.5'
p6297
asS'TIGR01797'
p6298
(lp6299
S'EC:5.4.99.5'
p6300
asS'TIGR02629'
p6301
(lp6302
S'EC:5.3.1'
p6303
asS'TIGR04431'
p6304
(lp6305
S'EC:2.3.1.82'
p6306
asS'TIGR02228'
p6307
(lp6308
S'EC:3.4.21.89'
p6309
asS'TIGR02227'
p6310
(lp6311
S'EC:3.4.21.89'
p6312
asS'TIGR03289'
p6313
(lp6314
S'EC:1.12.98.1'
p6315
asS'TIGR00849'
p6316
(lp6317
S'EC:2.7.1.69'
p6318
asS'TIGR03867'
p6319
(lp6320
S'EC:3.4.21'
p6321
asS'TIGR03316'
p6322
(lp6323
S'EC:2.1.3'
p6324
asS'PF02558'
p6325
(lp6326
S'EC:1.1.1.169'
p6327
asS'PF02557'
p6328
(lp6329
S'EC:3.4'
p6330
asS'PF02224'
p6331
(lp6332
S'EC:2.7.4.14'
p6333
asS'PF01958'
p6334
(lp6335
S'EC:1'
p6336
asS'PF02550'
p6337
(lp6338
S'EC:3.1.2.1'
p6339
asS'TIGR01530'
p6340
(lp6341
S'EC:3.1.3.5'
p6342
aS'EC:3.6.1.22'
p6343
asS'PF02552'
p6344
(lp6345
S'EC:1.2.99.2'
p6346
asS'TIGR00689'
p6347
(lp6348
S'EC:5.3.1'
p6349
asS'TIGR02826'
p6350
(lp6351
S'EC:1.97.1'
p6352
asS'TIGR00681'
p6353
(lp6354
S'EC:3.6.3.12'
p6355
asS'TIGR00680'
p6356
(lp6357
S'EC:3.6.3.12'
p6358
asS'TIGR00683'
p6359
(lp6360
S'EC:4.1.3.3'
p6361
asS'PF03313'
p6362
(lp6363
S'EC:4.2.1.13'
p6364
asS'TIGR00685'
p6365
(lp6366
S'EC:3.1.3.12'
p6367
asS'PF03315'
p6368
(lp6369
S'EC:4.2.1.13'
p6370
asS'TIGR00687'
p6371
(lp6372
S'EC:2.7.1.35'
p6373
asS'PF00316'
p6374
(lp6375
S'EC:3.1.3.11'
p6376
asS'TIGR03888'
p6377
(lp6378
S'EC:4.2.1.84'
p6379
asS'TIGR01327'
p6380
(lp6381
S'EC:1.1.1.95'
p6382
asS'TIGR03882'
p6383
(lp6384
S'EC:6.3'
p6385
asS'TIGR03887'
p6386
(lp6387
S'EC:3.5.5.8'
p6388
asS'TIGR03429'
p6389
(lp6390
S'EC:2.5'
p6391
asS'PF00975'
p6392
(lp6393
S'EC:3.1'
p6394
asS'TIGR02821'
p6395
(lp6396
S'EC:3.1.2.12'
p6397
asS'TIGR01078'
p6398
(lp6399
S'EC:3.5.3.6'
p6400
asS'PF05986'
p6401
(lp6402
S'EC:3.4.24'
p6403
asS'TIGR02130'
p6404
(lp6405
S'EC:1.17.1.8'
p6406
asS'TIGR02133'
p6407
(lp6408
S'EC:5.3.1.6'
p6409
asS'PF13367'
p6410
(lp6411
S'EC:3.4'
p6412
asS'PF13361'
p6413
(lp6414
S'EC:3'
p6415
asS'PF05336'
p6416
(lp6417
S'EC:5.1.3'
p6418
asS'PF12179'
p6419
(lp6420
S'EC:2.7.11.10'
p6421
asS'TIGR01647'
p6422
(lp6423
S'EC:3.6.3.6'
p6424
asS'PF03952'
p6425
(lp6426
S'EC:4.2.1.11'
p6427
asS'PF03405'
p6428
(lp6429
S'EC:1.14.19.2'
p6430
asS'PF03951'
p6431
(lp6432
S'EC:6.3.1.2'
p6433
asS'PF03403'
p6434
(lp6435
S'EC:3.1.1.47'
p6436
asS'TIGR02312'
p6437
(lp6438
S'EC:4.2'
p6439
asS'PF02423'
p6440
(lp6441
S'EC:4.3.1.12'
p6442
asS'PF02130'
p6443
(lp6444
S'EC:3.4.24'
p6445
asS'PF02137'
p6446
(lp6447
S'EC:3.5.4.4'
p6448
asS'PF02135'
p6449
(lp6450
S'EC:2.3.1.48'
p6451
asS'PF02426'
p6452
(lp6453
S'EC:5.3.3.4'
p6454
asS'PF09338'
p6455
(lp6456
S'EC:1.21.4'
p6457
asS'TIGR00035'
p6458
(lp6459
S'EC:5.1.1.13'
p6460
asS'PF09445'
p6461
(lp6462
S'EC:2.1.1'
p6463
asS'PF04863'
p6464
(lp6465
S'EC:4.4.1.4'
p6466
asS'PF04864'
p6467
(lp6468
S'EC:4.4.1.4'
p6469
asS'PF04868'
p6470
(lp6471
S'EC:3.1.4.17'
p6472
asS'PF00815'
p6473
(lp6474
S'EC:1.1.1.23'
p6475
asS'PF02046'
p6476
(lp6477
S'EC:1.9.3.1'
p6478
asS'PF09202'
p6479
(lp6480
S'EC:2.7.11'
p6481
asS'PF05028'
p6482
(lp6483
S'EC:3.2.1.143'
p6484
asS'PF09206'
p6485
(lp6486
S'EC:3.2.1.55'
p6487
asS'PF05024'
p6488
(lp6489
S'EC:2.4.1.198'
p6490
asS'PF05025'
p6491
(lp6492
S'EC:5'
p6493
asS'PF05026'
p6494
(lp6495
S'EC:3'
p6496
asS'PF05023'
p6497
(lp6498
S'EC:2.3.2.15'
p6499
asS'TIGR04542'
p6500
(lp6501
S'EC:1'
p6502
asS'TIGR04015'
p6503
(lp6504
S'EC:2.4'
p6505
asS'TIGR04016'
p6506
(lp6507
S'EC:2.3.1'
p6508
asS'TIGR04017'
p6509
(lp6510
S'EC:2.4'
p6511
asS'TIGR00069'
p6512
(lp6513
S'EC:1.1.1.23'
p6514
asS'TIGR04011'
p6515
(lp6516
S'EC:6.3.2'
p6517
asS'TIGR02919'
p6518
(lp6519
S'EC:2.4.1'
p6520
asS'TIGR02918'
p6521
(lp6522
S'EC:2.4.1'
p6523
asS'PF04261'
p6524
(lp6525
S'EC:1.11.1.7'
p6526
asS'TIGR02916'
p6527
(lp6528
S'EC:2.7.13.3'
p6529
asS'PF04263'
p6530
(lp6531
S'EC:2.7.6.2'
p6532
asS'PF04262'
p6533
(lp6534
S'EC:6.3.2.2'
p6535
asS'PF04265'
p6536
(lp6537
S'EC:2.7.6.2'
p6538
asS'TIGR02912'
p6539
(lp6540
S'EC:1.8'
p6541
asS'PF04267'
p6542
(lp6543
S'EC:1.5.3.1'
p6544
asS'TIGR02910'
p6545
(lp6546
S'EC:1.8'
p6547
asS'PF09028'
p6548
(lp6549
S'EC:3.4'
p6550
asS'PF09029'
p6551
(lp6552
S'EC:2.3.1.37'
p6553
asS'TIGR03251'
p6554
(lp6555
S'EC:2.6.1.36'
p6556
asS'TIGR02317'
p6557
(lp6558
S'EC:4.1.3.30'
p6559
asS'TIGR01591'
p6560
(lp6561
S'EC:1.2.1.2'
p6562
asS'TIGR01255'
p6563
(lp6564
S'EC:2.3.1.54'
p6565
asS'TIGR01251'
p6566
(lp6567
S'EC:2.7.6.1'
p6568
asS'TIGR01252'
p6569
(lp6570
S'EC:4.1.1.5'
p6571
asS'TIGR01499'
p6572
(lp6573
S'EC:6.3.2'
p6574
asS'TIGR01498'
p6575
(lp6576
S'EC:2.7.6.3'
p6577
asS'PF11522'
p6578
(lp6579
S'EC:2.7.1'
p6580
asS'TIGR01497'
p6581
(lp6582
S'EC:3.6.3.12'
p6583
asS'TIGR01749'
p6584
(lp6585
S'EC:4.2.1.59'
p6586
asS'TIGR01494'
p6587
(lp6588
S'EC:3.6.3'
p6589
asS'TIGR01225'
p6590
(lp6591
S'EC:4.3.1.3'
p6592
asS'TIGR02316'
p6593
(lp6594
S'EC:6.2.1.17'
p6595
asS'PF01149'
p6596
(lp6597
S'EC:3.2.2'
p6598
asS'PF01148'
p6599
(lp6600
S'EC:2.7.1.108'
p6601
asS'PF05240'
p6602
(lp6603
S'EC:3.5.4'
p6604
asS'PF05241'
p6605
(lp6606
S'EC:5.3.3.5'
p6607
asS'PF01144'
p6608
(lp6609
S'EC:2.8.3'
p6610
asS'PF01762'
p6611
(lp6612
S'EC:2.4.1'
p6613
asS'PF01761'
p6614
(lp6615
S'EC:4.6.1.3'
p6616
asS'TIGR00823'
p6617
(lp6618
S'EC:2.7.1.69'
p6619
asS'TIGR03461'
p6620
(lp6621
S'EC:4.1.3.38'
p6622
asS'TIGR03463'
p6623
(lp6624
S'EC:5.4.99.8'
p6625
asS'TIGR03464'
p6626
(lp6627
S'EC:2.4.1.21'
p6628
asS'TIGR03465'
p6629
(lp6630
S'EC:2.5.1.21'
p6631
asS'TIGR04306'
p6632
(lp6633
S'EC:3.5.99.2'
p6634
asS'PF07663'
p6635
(lp6636
S'EC:2.7.1.69'
p6637
asS'PF09154'
p6638
(lp6639
S'EC:3.2.1'
p6640
asS'PF00141'
p6641
(lp6642
S'EC:1.11.1.7'
p6643
asS'TIGR02055'
p6644
(lp6645
S'EC:1.8.4.10'
p6646
asS'PF00148'
p6647
(lp6648
S'EC:1'
p6649
asS'PF00149'
p6650
(lp6651
S'EC:3'
p6652
asS'PF00782'
p6653
(lp6654
S'EC:3.1.3'
p6655
asS'TIGR02891'
p6656
(lp6657
S'EC:1.9.3.1'
p6658
asS'TIGR00767'
p6659
(lp6660
S'EC:3.6.4'
p6661
asS'TIGR02050'
p6662
(lp6663
S'EC:6.3'
p6664
asS'PF08797'
p6665
(lp6666
S'EC:3.6.1'
p6667
asS'TIGR00750'
p6668
(lp6669
S'EC:2.7'
p6670
asS'PF01364'
p6671
(lp6672
S'EC:3.4'
p6673
asS'PF00368'
p6674
(lp6675
S'EC:1.1.1.34'
p6676
asS'TIGR04508'
p6677
(lp6678
S'EC:4.3.99.3'
p6679
asS'TIGR03799'
p6680
(lp6681
S'EC:4.1.1'
p6682
asS'PF04685'
p6683
(lp6684
S'EC:3.2.1.45'
p6685
asS'PF00365'
p6686
(lp6687
S'EC:2.7.1.11'
p6688
asS'TIGR04162'
p6689
(lp6690
S'EC:3.4.22'
p6691
asS'PF00367'
p6692
(lp6693
S'EC:2.7.1.69'
p6694
asS'PF04443'
p6695
(lp6696
S'EC:6.2.1.19'
p6697
asS'PF08774'
p6698
(lp6699
S'EC:3.1'
p6700
asS'PF04444'
p6701
(lp6702
S'EC:1.13.11.1'
p6703
asS'PF04446'
p6704
(lp6705
S'EC:2.7.7'
p6706
asS'TIGR01664'
p6707
(lp6708
S'EC:3.1.3.32'
p6709
asS'TIGR04504'
p6710
(lp6711
S'EC:1.1.99'
p6712
asS'PF02446'
p6713
(lp6714
S'EC:2.4.1.25'
p6715
asS'TIGR00204'
p6716
(lp6717
S'EC:2.2.1.7'
p6718
asS'TIGR02111'
p6719
(lp6720
S'EC:1.3.3.11'
p6721
asS'TIGR00203'
p6722
(lp6723
S'EC:1.10.3'
p6724
asS'TIGR02110'
p6725
(lp6726
S'EC:3.4.24'
p6727
asS'TIGR00209'
p6728
(lp6729
S'EC:2.7.7.10'
p6730
asS'PF07881'
p6731
(lp6732
S'EC:5.3.1.3'
p6733
asS'PF07882'
p6734
(lp6735
S'EC:5.3.1.3'
p6736
asS'TIGR01329'
p6737
(lp6738
S'EC:4.4.1.8'
p6739
asS'PF01565'
p6740
(lp6741
S'EC:1.1.1.158'
p6742
asS'TIGR01074'
p6743
(lp6744
S'EC:3.6.4.12'
p6745
asS'TIGR01076'
p6746
(lp6747
S'EC:3.4.22'
p6748
asS'PF04043'
p6749
(lp6750
S'EC:3.1.1.11'
p6751
asS'PF01562'
p6752
(lp6753
S'EC:3.4.24'
p6754
asS'PF03174'
p6755
(lp6756
S'EC:3.2.1.52'
p6757
asS'PF01569'
p6758
(lp6759
S'EC:3.1.3.27'
p6760
asS'PF01568'
p6761
(lp6762
S'EC:1'
p6763
asS'TIGR02439'
p6764
(lp6765
S'EC:1.13.11.1'
p6766
asS'PF06339'
p6767
(lp6768
S'EC:4.2.1.108'
p6769
asS'PF00215'
p6770
(lp6771
S'EC:4.1.1.23'
p6772
asS'PF07536'
p6773
(lp6774
S'EC:2.7.13.3'
p6775
asS'PF00217'
p6776
(lp6777
S'EC:2.7'
p6778
asS'PF00211'
p6779
(lp6780
S'EC:4.6'
p6781
asS'PF07533'
p6782
(lp6783
S'EC:3.6'
p6784
asS'PF06330'
p6785
(lp6786
S'EC:4.2.3.6'
p6787
asS'PF00218'
p6788
(lp6789
S'EC:4.1.1.48'
p6790
asS'TIGR03080'
p6791
(lp6792
S'EC:1.14.13.25'
p6793
asS'PF09830'
p6794
(lp6795
S'EC:2.7.7.53'
p6796
asS'TIGR03192'
p6797
(lp6798
S'EC:1.3.7.8'
p6799
asS'TIGR00519'
p6800
(lp6801
S'EC:3.5.1.1'
p6802
asS'PF08997'
p6803
(lp6804
S'EC:1.10.2.2'
p6805
asS'TIGR00668'
p6806
(lp6807
S'EC:3.6.1.41'
p6808
asS'TIGR03695'
p6809
(lp6810
S'EC:4.2.99.20'
p6811
asS'TIGR00511'
p6812
(lp6813
S'EC:5.3.1'
p6814
asS'TIGR00510'
p6815
(lp6816
S'EC:2.8.1.8'
p6817
asS'TIGR00513'
p6818
(lp6819
S'EC:6.4.1.2'
p6820
asS'TIGR00512'
p6821
(lp6822
S'EC:5.3.1.23'
p6823
asS'TIGR00515'
p6824
(lp6825
S'EC:6.4.1.2'
p6826
asS'TIGR00838'
p6827
(lp6828
S'EC:4.3.2.1'
p6829
asS'TIGR00516'
p6830
(lp6831
S'EC:2.7.8.7'
p6832
asS'TIGR01108'
p6833
(lp6834
S'EC:4.1.1.3'
p6835
asS'TIGR00839'
p6836
(lp6837
S'EC:4.3.1.1'
p6838
asS'PF13822'
p6839
(lp6840
S'EC:6.4.1.2'
p6841
asS'TIGR01101'
p6842
(lp6843
S'EC:3.6.3.14'
p6844
asS'TIGR01100'
p6845
(lp6846
S'EC:3.6.3.14'
p6847
asS'PF06427'
p6848
(lp6849
S'EC:2.4.1'
p6850
asS'PF06426'
p6851
(lp6852
S'EC:2.3.1.30'
p6853
asS'TIGR01104'
p6854
(lp6855
S'EC:3.6.1.1'
p6856
asS'PF06423'
p6857
(lp6858
S'EC:2.3'
p6859
asS'PF02936'
p6860
(lp6861
S'EC:1.9.3.1'
p6862
asS'PF06751'
p6863
(lp6864
S'EC:4.3.1.7'
p6865
asS'PF06202'
p6866
(lp6867
S'EC:2.4.1.25'
p6868
asS'PF08990'
p6869
(lp6870
S'EC:2'
p6871
asS'TIGR00674'
p6872
(lp6873
S'EC:4.3.3.7'
p6874
asS'TIGR00675'
p6875
(lp6876
S'EC:2.1.1.37'
p6877
asS'TIGR00676'
p6878
(lp6879
S'EC:1.5.1.20'
p6880
asS'TIGR00677'
p6881
(lp6882
S'EC:1.5.1.20'
p6883
asS'TIGR00670'
p6884
(lp6885
S'EC:2.1.3.2'
p6886
asS'TIGR00671'
p6887
(lp6888
S'EC:2.7.1.33'
p6889
asS'TIGR00672'
p6890
(lp6891
S'EC:3.6.1.26'
p6892
asS'PF02297'
p6893
(lp6894
S'EC:1.9.3.1'
p6895
asS'PF07335'
p6896
(lp6897
S'EC:3.2.1.132'
p6898
asS'PF03141'
p6899
(lp6900
S'EC:2.1.1'
p6901
asS'PF02939'
p6902
(lp6903
S'EC:1.10.2.2'
p6904
asS'PF03142'
p6905
(lp6906
S'EC:2.4.1.16'
p6907
asS'TIGR00472'
p6908
(lp6909
S'EC:6.1.1.20'
p6910
asS'TIGR00473'
p6911
(lp6912
S'EC:2.7.8.8'
p6913
asS'TIGR00470'
p6914
(lp6915
S'EC:6.1.1.27'
p6916
asS'TIGR00471'
p6917
(lp6918
S'EC:6.1.1.20'
p6919
asS'TIGR00476'
p6920
(lp6921
S'EC:2.7.9.3'
p6922
asS'TIGR02689'
p6923
(lp6924
S'EC:1.20.4.1'
p6925
asS'TIGR02685'
p6926
(lp6927
S'EC:1.5.1.33'
p6928
asS'TIGR00479'
p6929
(lp6930
S'EC:2.1.1'
p6931
asS'TIGR03452'
p6932
(lp6933
S'EC:1.8.1.15'
p6934
asS'TIGR03455'
p6935
(lp6936
S'EC:2.4.2.17'
p6937
asS'TIGR04489'
p6938
(lp6939
S'EC:3.4.22'
p6940
asS'TIGR03253'
p6941
(lp6942
S'EC:2.8.3.16'
p6943
asS'PF08941'
p6944
(lp6945
S'EC:6.3.2'
p6946
asS'PF02302'
p6947
(lp6948
S'EC:2.7.1.69'
p6949
asS'TIGR01814'
p6950
(lp6951
S'EC:3.7.1.3'
p6952
asS'TIGR02310'
p6953
(lp6954
S'EC:1.14.14.9'
p6955
asS'TIGR03256'
p6956
(lp6957
S'EC:2.8.4.1'
p6958
asS'TIGR01811'
p6959
(lp6960
S'EC:1.3.99.1'
p6961
asS'PF01812'
p6962
(lp6963
S'EC:6.3.3.2'
p6964
asS'TIGR03259'
p6965
(lp6966
S'EC:2.8.4.1'
p6967
asS'TIGR04445'
p6968
(lp6969
S'EC:2.5.1'
p6970
asS'TIGR02356'
p6971
(lp6972
S'EC:2.7.7.73'
p6973
asS'TIGR02352'
p6974
(lp6975
S'EC:1.4.3.19'
p6976
asS'PF12567'
p6977
(lp6978
S'EC:3.1.3.48'
p6979
asS'PF11991'
p6980
(lp6981
S'EC:2.5.1.34'
p6982
asS'PF03543'
p6983
(lp6984
S'EC:3.4.22'
p6985
asS'PF05838'
p6986
(lp6987
S'EC:3.2.1.17'
p6988
asS'TIGR02063'
p6989
(lp6990
S'EC:3.1'
p6991
asS'PF16670'
p6992
(lp6993
S'EC:3.1.4.11'
p6994
asS'PF10555'
p6995
(lp6996
S'EC:2.7.8.13'
p6997
asS'TIGR00325'
p6998
(lp6999
S'EC:3.5.1'
p7000
asS'TIGR02235'
p7001
(lp7002
S'EC:2.5.1'
p7003
asS'TIGR02230'
p7004
(lp7005
S'EC:3.6.3'
p7006
asS'TIGR03327'
p7007
(lp7008
S'EC:2.4'
p7009
asS'PF01960'
p7010
(lp7011
S'EC:2.3.1.1'
p7012
asS'PF02548'
p7013
(lp7014
S'EC:2.1.2.11'
p7015
asS'TIGR03324'
p7016
(lp7017
S'EC:3.6.3'
p7018
asS'TIGR03323'
p7019
(lp7020
S'EC:3.6.3'
p7021
asS'PF03320'
p7022
(lp7023
S'EC:3.1.3.11'
p7024
asS'TIGR03321'
p7025
(lp7026
S'EC:3.6.3'
p7027
asS'PF03894'
p7028
(lp7029
S'EC:4.1.2.22'
p7030
asS'PF02542'
p7031
(lp7032
S'EC:4.6.1.12'
p7033
asS'PF01968'
p7034
(lp7035
S'EC:3.5.2.9'
p7036
asS'PF02540'
p7037
(lp7038
S'EC:6.3.5.1'
p7039
asS'PF02541'
p7040
(lp7041
S'EC:3.6.1.11'
p7042
asS'PF02230'
p7043
(lp7044
S'EC:3'
p7045
asS'PF02547'
p7046
(lp7047
S'EC:2'
p7048
asS'PF02544'
p7049
(lp7050
S'EC:1.3.99.5'
p7051
asS'PF02233'
p7052
(lp7053
S'EC:1.6.1.2'
p7054
asS'TIGR00699'
p7055
(lp7056
S'EC:2.6.1.19'
p7057
asS'TIGR00692'
p7058
(lp7059
S'EC:1.1.1.103'
p7060
asS'TIGR00693'
p7061
(lp7062
S'EC:2.5.1.3'
p7063
asS'TIGR00690'
p7064
(lp7065
S'EC:2.7.7.6'
p7066
asS'TIGR00696'
p7067
(lp7068
S'EC:2.4.1'
p7069
asS'TIGR00694'
p7070
(lp7071
S'EC:2.7.1.50'
p7072
asS'TIGR00695'
p7073
(lp7074
S'EC:4.2.1.8'
p7075
asS'PF11734'
p7076
(lp7077
S'EC:6.3'
p7078
asS'PF05497'
p7079
(lp7080
S'EC:3.2.1.17'
p7081
asS'PF02434'
p7082
(lp7083
S'EC:2.4'
p7084
asS'PF02435'
p7085
(lp7086
S'EC:2.4.1.10'
p7087
asS'TIGR02127'
p7088
(lp7089
S'EC:4.1.1.23'
p7090
asS'PF02431'
p7091
(lp7092
S'EC:5.5'
p7093
asS'TIGR01677'
p7094
(lp7095
S'EC:1'
p7096
asS'TIGR01676'
p7097
(lp7098
S'EC:1.3.2.3'
p7099
asS'TIGR02128'
p7100
(lp7101
S'EC:5.3.1.9'
p7102
asS'TIGR02129'
p7103
(lp7104
S'EC:5.3.1.16'
p7105
asS'PF05301'
p7106
(lp7107
S'EC:2.3.1.108'
p7108
asS'PF05652'
p7109
(lp7110
S'EC:3'
p7111
asS'TIGR01670'
p7112
(lp7113
S'EC:3.1.3.45'
p7114
asS'PF02128'
p7115
(lp7116
S'EC:3.4.24'
p7117
asS'PF02129'
p7118
(lp7119
S'EC:3'
p7120
asS'PF12343'
p7121
(lp7122
S'EC:3.6'
p7123
asS'PF03435'
p7124
(lp7125
S'EC:1'
p7126
asS'PF02943'
p7127
(lp7128
S'EC:1.18'
p7129
asS'PF02940'
p7130
(lp7131
S'EC:3.1.3.33'
p7132
asS'TIGR01287'
p7133
(lp7134
S'EC:1.18.6.1'
p7135
asS'PF02122'
p7136
(lp7137
S'EC:3.4.21'
p7138
asS'PF02127'
p7139
(lp7140
S'EC:3.4.11'
p7141
asS'PF09308'
p7142
(lp7143
S'EC:3.1.3.41'
p7144
asS'PF04879'
p7145
(lp7146
S'EC:1'
p7147
asS'PF11606'
p7148
(lp7149
S'EC:3.2.1.32'
p7150
asS'TIGR01823'
p7151
(lp7152
S'EC:2.6.1.85'
p7153
asS'TIGR01820'
p7154
(lp7155
S'EC:4.1.3.27'
p7156
asS'PF02055'
p7157
(lp7158
S'EC:3.2.1.45'
p7159
asS'PF02056'
p7160
(lp7161
S'EC:3.2.1'
p7162
asS'PF02057'
p7163
(lp7164
S'EC:3.2.1.46'
p7165
asS'PF05011'
p7166
(lp7167
S'EC:3.1'
p7168
asS'TIGR01910'
p7169
(lp7170
S'EC:3.4'
p7171
asS'PF09230'
p7172
(lp7173
S'EC:3'
p7174
asS'PF00258'
p7175
(lp7176
S'EC:1'
p7177
asS'TIGR02902'
p7178
(lp7179
S'EC:3.4.21'
p7180
asS'TIGR02903'
p7181
(lp7182
S'EC:3.4.21'
p7183
asS'PF09547'
p7184
(lp7185
S'EC:3.6.1.3'
p7186
asS'TIGR01824'
p7187
(lp7188
S'EC:2.6.1.85'
p7189
asS'PF09013'
p7190
(lp7191
S'EC:3.1.3.48'
p7192
asS'TIGR00079'
p7193
(lp7194
S'EC:3.5.1.88'
p7195
asS'TIGR02908'
p7196
(lp7197
S'EC:1.9.3.1'
p7198
asS'PF08545'
p7199
(lp7200
S'EC:2.3.1.41'
p7201
asS'PF08546'
p7202
(lp7203
S'EC:1.1.1.169'
p7204
asS'TIGR01355'
p7205
(lp7206
S'EC:3.5.4.5'
p7207
asS'PF08540'
p7208
(lp7209
S'EC:2.3.3.10'
p7210
asS'PF08541'
p7211
(lp7212
S'EC:2.3.1.41'
p7213
asS'TIGR00070'
p7214
(lp7215
S'EC:2.4.2.17'
p7216
asS'PF08543'
p7217
(lp7218
S'EC:2.7.4.7'
p7219
asS'TIGR01249'
p7220
(lp7221
S'EC:3.4.11.5'
p7222
asS'TIGR01246'
p7223
(lp7224
S'EC:3.5.1.18'
p7225
asS'TIGR01245'
p7226
(lp7227
S'EC:2.4.2.18'
p7228
asS'TIGR01240'
p7229
(lp7230
S'EC:4.1.1.33'
p7231
asS'TIGR01241'
p7232
(lp7233
S'EC:3.4.24'
p7234
asS'PF01799'
p7235
(lp7236
S'EC:1'
p7237
asS'PF05270'
p7238
(lp7239
S'EC:3.2.1.55'
p7240
asS'TIGR02472'
p7241
(lp7242
S'EC:2.4.1.14'
p7243
asS'PF01793'
p7244
(lp7245
S'EC:2.4.1'
p7246
asS'PF01790'
p7247
(lp7248
S'EC:2.4'
p7249
asS'PF01791'
p7250
(lp7251
S'EC:4.1.2.40'
p7252
asS'TIGR01482'
p7253
(lp7254
S'EC:3.1.3'
p7255
asS'PF01795'
p7256
(lp7257
S'EC:2.1.1'
p7258
asS'TIGR03908'
p7259
(lp7260
S'EC:1.4'
p7261
asS'PF01154'
p7262
(lp7263
S'EC:2.3.3.10'
p7264
asS'PF01150'
p7265
(lp7266
S'EC:3'
p7267
asS'TIGR02320'
p7268
(lp7269
S'EC:5.4.2.9'
p7270
asS'TIGR04379'
p7271
(lp7272
S'EC:4.2.1.44'
p7273
asS'TIGR04378'
p7274
(lp7275
S'EC:5.3.1'
p7276
asS'PF15291'
p7277
(lp7278
S'EC:3.4'
p7279
asS'TIGR03417'
p7280
(lp7281
S'EC:3.1.6.6'
p7282
asS'TIGR04371'
p7283
(lp7284
S'EC:2.1.1'
p7285
asS'PF00685'
p7286
(lp7287
S'EC:2.8.2'
p7288
asS'PF10120'
p7289
(lp7290
S'EC:2.5.1.3'
p7291
asS'PF09165'
p7292
(lp7293
S'EC:1.10.2.2'
p7294
asS'PF09166'
p7295
(lp7296
S'EC:1.3.1.24'
p7297
asS'PF05870'
p7298
(lp7299
S'EC:4.1.1'
p7300
asS'PF05875'
p7301
(lp7302
S'EC:3.5.1.23'
p7303
asS'PF01487'
p7304
(lp7305
S'EC:4.2.1.10'
p7306
asS'PF09492'
p7307
(lp7308
S'EC:4.2.2.2'
p7309
asS'PF13618'
p7310
(lp7311
S'EC:1.1.99.3'
p7312
asS'PF01483'
p7313
(lp7314
S'EC:3.4.21'
p7315
asS'PF00884'
p7316
(lp7317
S'EC:3.1.6'
p7318
asS'PF00175'
p7319
(lp7320
S'EC:1'
p7321
asS'PF11468'
p7322
(lp7323
S'EC:2'
p7324
asS'TIGR00678'
p7325
(lp7326
S'EC:2.7.7.7'
p7327
asS'PF00171'
p7328
(lp7329
S'EC:1.2.1.3'
p7330
asS'PF05362'
p7331
(lp7332
S'EC:3.4.21'
p7333
asS'PF01379'
p7334
(lp7335
S'EC:2.5.1.61'
p7336
asS'PF04275'
p7337
(lp7338
S'EC:2.7.4.2'
p7339
asS'PF04273'
p7340
(lp7341
S'EC:3'
p7342
asS'PF00777'
p7343
(lp7344
S'EC:2.4.99'
p7345
asS'TIGR02773'
p7346
(lp7347
S'EC:3.1'
p7348
aS'EC:3.6.4.12'
p7349
asS'PF01361'
p7350
(lp7351
S'EC:5'
p7352
asS'PF01374'
p7353
(lp7354
S'EC:3.2.1.132'
p7355
asS'PF08785'
p7356
(lp7357
S'EC:3.6'
p7358
asS'TIGR04191'
p7359
(lp7360
S'EC:1'
p7361
asS'PF08163'
p7362
(lp7363
S'EC:2.7.11'
p7364
asS'TIGR01359'
p7365
(lp7366
S'EC:2.7.4'
p7367
asS'TIGR04195'
p7368
(lp7369
S'EC:2.4.1'
p7370
asS'TIGR04199'
p7371
(lp7372
S'EC:3.4.22'
p7373
asS'TIGR00041'
p7374
(lp7375
S'EC:2.7.4.9'
p7376
asS'PF00199'
p7377
(lp7378
S'EC:1.11.1.6'
p7379
asS'PF00198'
p7380
(lp7381
S'EC:2.3'
p7382
asS'TIGR02152'
p7383
(lp7384
S'EC:2.7.1.15'
p7385
asS'TIGR04202'
p7386
(lp7387
S'EC:3.1'
p7388
asS'PF08761'
p7389
(lp7390
S'EC:3.6.1.23'
p7391
asS'TIGR03528'
p7392
(lp7393
S'EC:4.3.1.15'
p7394
asS'PF04454'
p7395
(lp7396
S'EC:3.4'
p7397
asS'TIGR02446'
p7398
(lp7399
S'EC:2.3.1.16'
p7400
asS'PF04452'
p7401
(lp7402
S'EC:2.1.1'
p7403
asS'TIGR00216'
p7404
(lp7405
S'EC:1.17.1.2'
p7406
asS'TIGR00217'
p7407
(lp7408
S'EC:2.4.1.25'
p7409
asS'TIGR00214'
p7410
(lp7411
S'EC:2.3.1.181'
p7412
asS'TIGR00215'
p7413
(lp7414
S'EC:2.4.1.182'
p7415
asS'TIGR00212'
p7416
(lp7417
S'EC:2.5.1.61'
p7418
asS'TIGR00045'
p7419
(lp7420
S'EC:2.7.1.31'
p7421
asS'TIGR00211'
p7422
(lp7423
S'EC:6.1.1.14'
p7424
asS'PF10237'
p7425
(lp7426
S'EC:2.1.1'
p7427
asS'TIGR02662'
p7428
(lp7429
S'EC:3.2.2.24'
p7430
asS'TIGR00218'
p7431
(lp7432
S'EC:5.3.1.8'
p7433
asS'PF04655'
p7434
(lp7435
S'EC:2.7.1'
p7436
asS'TIGR01064'
p7437
(lp7438
S'EC:2.7.1.40'
p7439
asS'TIGR01062'
p7440
(lp7441
S'EC:5.99.1'
p7442
asS'PF01577'
p7443
(lp7444
S'EC:3.4.22'
p7445
asS'TIGR01060'
p7446
(lp7447
S'EC:4.2.1.11'
p7448
asS'TIGR01061'
p7449
(lp7450
S'EC:5.99.1'
p7451
asS'PF00512'
p7452
(lp7453
S'EC:2.7.3'
p7454
asS'PF00221'
p7455
(lp7456
S'EC:4.3.1.24'
p7457
asS'TIGR01124'
p7458
(lp7459
S'EC:4.3.1.19'
p7460
asS'TIGR00048'
p7461
(lp7462
S'EC:2.1.1.192'
p7463
asS'PF00224'
p7464
(lp7465
S'EC:2.7.1.40'
p7466
asS'PF00227'
p7467
(lp7468
S'EC:3.4.25'
p7469
asS'PF03574'
p7470
(lp7471
S'EC:3.4.21'
p7472
asS'PF12740'
p7473
(lp7474
S'EC:3.1.1.14'
p7475
asS'TIGR00550'
p7476
(lp7477
S'EC:2.5.1.72'
p7478
asS'TIGR03634'
p7479
(lp7480
S'EC:3.4.25.1'
p7481
asS'TIGR00508'
p7482
(lp7483
S'EC:2.6.1.62'
p7484
asS'TIGR03633'
p7485
(lp7486
S'EC:3.4.25.1'
p7487
asS'TIGR00502'
p7488
(lp7489
S'EC:3.5.99.6'
p7490
asS'TIGR03288'
p7491
(lp7492
S'EC:1.8.98.1'
p7493
asS'TIGR00500'
p7494
(lp7495
S'EC:3.4.11.18'
p7496
asS'TIGR00501'
p7497
(lp7498
S'EC:3.4.11.18'
p7499
asS'TIGR03639'
p7500
(lp7501
S'EC:3.1'
p7502
asS'TIGR00507'
p7503
(lp7504
S'EC:1.1.1.25'
p7505
asS'TIGR00504'
p7506
(lp7507
S'EC:3.4.19.3'
p7508
asS'TIGR00505'
p7509
(lp7510
S'EC:3.5.4.25'
p7511
asS'PF00355'
p7512
(lp7513
S'EC:1'
p7514
asS'TIGR01118'
p7515
(lp7516
S'EC:5.3.1.26'
p7517
asS'TIGR01119'
p7518
(lp7519
S'EC:5.3.1.26'
p7520
asS'PF00351'
p7521
(lp7522
S'EC:1.14.16'
p7523
asS'PF00420'
p7524
(lp7525
S'EC:1.6'
p7526
asS'PF06432'
p7527
(lp7528
S'EC:2.4.1.198'
p7529
asS'PF06925'
p7530
(lp7531
S'EC:2.4.1.46'
p7532
asS'TIGR01111'
p7533
(lp7534
S'EC:2.1.1.86'
p7535
asS'TIGR01116'
p7536
(lp7537
S'EC:3.6.3.8'
p7538
asS'PF06437'
p7539
(lp7540
S'EC:3.1.3.41'
p7541
asS'PF06434'
p7542
(lp7543
S'EC:4.2.1.3'
p7544
asS'TIGR03820'
p7545
(lp7546
S'EC:5.4.3.2'
p7547
asS'PF12409'
p7548
(lp7549
S'EC:3.6.1.3'
p7550
asS'PF03150'
p7551
(lp7552
S'EC:1'
p7553
asS'PF07347'
p7554
(lp7555
S'EC:1.6.5.3'
p7556
asS'PF12404'
p7557
(lp7558
S'EC:3.4.11'
p7559
asS'PF03155'
p7560
(lp7561
S'EC:2.4.1'
p7562
asS'TIGR00447'
p7563
(lp7564
S'EC:3.1.1.29'
p7565
asS'TIGR02691'
p7566
(lp7567
S'EC:1.20.4'
p7568
aS'EC:3.1.3.48'
p7569
asS'TIGR02692'
p7570
(lp7571
S'EC:2.7.7.72'
p7572
asS'TIGR02693'
p7573
(lp7574
S'EC:1.20.9.1'
p7575
asS'TIGR02694'
p7576
(lp7577
S'EC:1.20.9.1'
p7578
asS'TIGR00442'
p7579
(lp7580
S'EC:6.1.1.21'
p7581
asS'TIGR02696'
p7582
(lp7583
S'EC:2.7'
p7584
aS'EC:2.7.7.8'
p7585
asS'TIGR00440'
p7586
(lp7587
S'EC:6.1.1.18'
p7588
asS'TIGR00449'
p7589
(lp7590
S'EC:2.4.2'
p7591
asS'TIGR01575'
p7592
(lp7593
S'EC:2.3.1.128'
p7594
asS'PF06327'
p7595
(lp7596
S'EC:4.6.1.1'
p7597
asS'TIGR01663'
p7598
(lp7599
S'EC:3.1.3.32'
p7600
asS'PF00553'
p7601
(lp7602
S'EC:3.2.1'
p7603
asS'TIGR01792'
p7604
(lp7605
S'EC:3.5.1.5'
p7606
asS'TIGR01808'
p7607
(lp7608
S'EC:5.4.99.5'
p7609
asS'TIGR01809'
p7610
(lp7611
S'EC:1.1.1.25'
p7612
asS'TIGR01793'
p7613
(lp7614
S'EC:2.3.3.1'
p7615
asS'PF00848'
p7616
(lp7617
S'EC:1.14.12'
p7618
asS'TIGR01801'
p7619
(lp7620
S'EC:5.4.99.5'
p7621
asS'TIGR01802'
p7622
(lp7623
S'EC:5.4.99.5'
p7624
asS'TIGR01804'
p7625
(lp7626
S'EC:1.2.1.8'
p7627
asS'TIGR01805'
p7628
(lp7629
S'EC:5.4.99.5'
p7630
asS'TIGR01806'
p7631
(lp7632
S'EC:5.4.99.5'
p7633
asS'TIGR01807'
p7634
(lp7635
S'EC:5.4.99.5'
p7636
asS'TIGR03244'
p7637
(lp7638
S'EC:2.3.1.109'
p7639
asS'TIGR03245'
p7640
(lp7641
S'EC:2.3.1.109'
p7642
asS'TIGR03246'
p7643
(lp7644
S'EC:2.6.1.81'
p7645
asS'TIGR03247'
p7646
(lp7647
S'EC:4.2.1.40'
p7648
asS'TIGR03240'
p7649
(lp7650
S'EC:1.2.1.71'
p7651
asS'PF01807'
p7652
(lp7653
S'EC:2.7.7'
p7654
asS'PF01804'
p7655
(lp7656
S'EC:3.5.1.11'
p7657
asS'TIGR03243'
p7658
(lp7659
S'EC:2.3.1'
p7660
asS'PF02335'
p7661
(lp7662
S'EC:1.7.2.2'
p7663
asS'PF01808'
p7664
(lp7665
S'EC:3.5.4.10'
p7666
asS'TIGR03248'
p7667
(lp7668
S'EC:4.2.1.42'
p7669
asS'TIGR03249'
p7670
(lp7671
S'EC:4.2.1.41'
p7672
asS'PF06100'
p7673
(lp7674
S'EC:4.2.1.53'
p7675
asS'PF03552'
p7676
(lp7677
S'EC:2.4.1.12'
p7678
asS'TIGR01148'
p7679
(lp7680
S'EC:2.1.1.86'
p7681
asS'PF03088'
p7682
(lp7683
S'EC:4.3.3.2'
p7684
asS'TIGR02621'
p7685
(lp7686
S'EC:3.6.4'
p7687
asS'TIGR02981'
p7688
(lp7689
S'EC:2.8.1.1'
p7690
asS'PF13292'
p7691
(lp7692
S'EC:2.2.1.7'
p7693
asS'PF17048'
p7694
(lp7695
S'EC:3.5.1.23'
p7696
asS'TIGR02201'
p7697
(lp7698
S'EC:2.4.1'
p7699
asS'TIGR02207'
p7700
(lp7701
S'EC:2.3.1'
p7702
asS'TIGR03330'
p7703
(lp7704
S'EC:4.1.1.50'
p7705
asS'TIGR03331'
p7706
(lp7707
S'EC:4.1.1.50'
p7708
asS'TIGR03332'
p7709
(lp7710
S'EC:5.3.2'
p7711
asS'TIGR03333'
p7712
(lp7713
S'EC:3.1.3'
p7714
asS'TIGR03334'
p7715
(lp7716
S'EC:1.2.7.8'
p7717
asS'TIGR03335'
p7718
(lp7719
S'EC:2.7.7'
p7720
asS'TIGR03336'
p7721
(lp7722
S'EC:1.2.7.8'
p7723
asS'PF03332'
p7724
(lp7725
S'EC:5.4.2.8'
p7726
asS'PF03331'
p7727
(lp7728
S'EC:3.5.1'
p7729
asS'PF01979'
p7730
(lp7731
S'EC:3.5.2.3'
p7732
asS'PF01977'
p7733
(lp7734
S'EC:4.1.1'
p7735
asS'PF01974'
p7736
(lp7737
S'EC:3.1.27.9'
p7738
asS'PF01975'
p7739
(lp7740
S'EC:3'
p7741
asS'PF02590'
p7742
(lp7743
S'EC:2.1.1'
p7744
asS'PF02595'
p7745
(lp7746
S'EC:2.7.1.31'
p7747
asS'PF11722'
p7748
(lp7749
S'EC:2.1.1'
p7750
asS'TIGR04217'
p7751
(lp7752
S'EC:2.7.8'
p7753
asS'PF02844'
p7754
(lp7755
S'EC:6.3.4.13'
p7756
asS'PF02843'
p7757
(lp7758
S'EC:6.3.4.13'
p7759
asS'TIGR03310'
p7760
(lp7761
S'EC:2.7.7.76'
p7762
asS'TIGR00848'
p7763
(lp7764
S'EC:2.7.1.69'
p7765
asS'TIGR03860'
p7766
(lp7767
S'EC:1'
p7768
asS'TIGR01660'
p7769
(lp7770
S'EC:1.7.99.4'
p7771
asS'TIGR02115'
p7772
(lp7773
S'EC:3.6.3.12'
p7774
asS'TIGR02114'
p7775
(lp7776
S'EC:6.3.2.5'
p7777
asS'TIGR02113'
p7778
(lp7779
S'EC:4.1.1.36'
p7780
asS'PF02110'
p7781
(lp7782
S'EC:2.7.1.50'
p7783
asS'PF02113'
p7784
(lp7785
S'EC:3.4.16'
p7786
asS'PF02112'
p7787
(lp7788
S'EC:3.1.4'
p7789
asS'TIGR01668'
p7790
(lp7791
S'EC:3.1.3'
p7792
asS'PF02449'
p7793
(lp7794
S'EC:3.2.1.23'
p7795
asS'PF02685'
p7796
(lp7797
S'EC:2.7.1.2'
p7798
asS'PF02684'
p7799
(lp7800
S'EC:2.4.1.182'
p7801
asS'PF02937'
p7802
(lp7803
S'EC:1.9.3.1'
p7804
asS'PF08992'
p7805
(lp7806
S'EC:1.4'
p7807
asS'PF02935'
p7808
(lp7809
S'EC:1.9.3.1'
p7810
asS'PF02934'
p7811
(lp7812
S'EC:6'
p7813
asS'PF03424'
p7814
(lp7815
S'EC:3.2.1.4'
p7816
asS'PF03425'
p7817
(lp7818
S'EC:3.2.1.4'
p7819
asS'PF11616'
p7820
(lp7821
S'EC:2.1.1.43'
p7822
asS'TIGR03319'
p7823
(lp7824
S'EC:3.1'
p7825
asS'PF01959'
p7826
(lp7827
S'EC:4.2.3.4'
p7828
asS'PF04848'
p7829
(lp7830
S'EC:3.1'
p7831
asS'TIGR01890'
p7832
(lp7833
S'EC:2.3.1.1'
p7834
asS'TIGR00434'
p7835
(lp7836
S'EC:1.8.4.8'
p7837
asS'PF04843'
p7838
(lp7839
S'EC:3.4'
p7840
asS'PF05007'
p7841
(lp7842
S'EC:2.4.1'
p7843
asS'TIGR00435'
p7844
(lp7845
S'EC:6.1.1.16'
p7846
asS'PF01019'
p7847
(lp7848
S'EC:2.3.2.2'
p7849
asS'TIGR04368'
p7850
(lp7851
S'EC:5.4.3.9'
p7852
asS'PF10588'
p7853
(lp7854
S'EC:1'
p7855
asS'PF02065'
p7856
(lp7857
S'EC:3.2.1.22'
p7858
asS'PF08273'
p7859
(lp7860
S'EC:2.7.7'
p7861
asS'TIGR00294'
p7862
(lp7863
S'EC:3.5.4'
p7864
asS'TIGR00965'
p7865
(lp7866
S'EC:2.3.1.117'
p7867
asS'TIGR00042'
p7868
(lp7869
S'EC:3.6.1'
p7870
asS'PF09000'
p7871
(lp7872
S'EC:3.1'
p7873
asS'TIGR00040'
p7874
(lp7875
S'EC:3.1'
p7876
asS'TIGR00046'
p7877
(lp7878
S'EC:2.1.1'
p7879
asS'PF09004'
p7880
(lp7881
S'EC:2.1.1'
p7882
asS'PF09009'
p7883
(lp7884
S'EC:2.4.2.36'
p7885
asS'TIGR01273'
p7886
(lp7887
S'EC:4.1.1.19'
p7888
asS'TIGR00635'
p7889
(lp7890
S'EC:3.6.4.12'
p7891
asS'PF11501'
p7892
(lp7893
S'EC:3.6'
p7894
asS'TIGR01277'
p7895
(lp7896
S'EC:3.6.3'
p7897
asS'TIGR01274'
p7898
(lp7899
S'EC:3.5.99.7'
p7900
asS'TIGR01279'
p7901
(lp7902
S'EC:1.3.7.7'
p7903
asS'TIGR03401'
p7904
(lp7905
S'EC:4.2.1'
p7906
asS'TIGR01473'
p7907
(lp7908
S'EC:2.5.1'
p7909
asS'TIGR00682'
p7910
(lp7911
S'EC:2.7.1.130'
p7912
asS'TIGR01475'
p7913
(lp7914
S'EC:2.5.1'
p7915
asS'TIGR01474'
p7916
(lp7917
S'EC:2.5.1'
p7918
asS'TIGR01476'
p7919
(lp7920
S'EC:2.5.1'
p7921
asS'TIGR01479'
p7922
(lp7923
S'EC:5.3.1.8'
p7924
aS'EC:2.7.7.13'
p7925
asS'PF16876'
p7926
(lp7927
S'EC:5.2.1.8'
p7928
asS'TIGR01271'
p7929
(lp7930
S'EC:3.6.3.49'
p7931
asS'PF09317'
p7932
(lp7933
S'EC:1.3.99.3'
p7934
asS'PF04996'
p7935
(lp7936
S'EC:3.5.3.23'
p7937
asS'PF01743'
p7938
(lp7939
S'EC:2.7.7.19'
p7940
asS'PF01742'
p7941
(lp7942
S'EC:3.4.24'
p7943
asS'PF01745'
p7944
(lp7945
S'EC:2.5.1.1'
p7946
asS'PF01747'
p7947
(lp7948
S'EC:2.7.7.4'
p7949
asS'PF01746'
p7950
(lp7951
S'EC:2.1.1.31'
p7952
asS'PF00692'
p7953
(lp7954
S'EC:3'
p7955
asS'PF00693'
p7956
(lp7957
S'EC:2.7.1.21'
p7958
asS'TIGR03402'
p7959
(lp7960
S'EC:2.8.1.7'
p7961
asS'TIGR03403'
p7962
(lp7963
S'EC:2.8.1.7'
p7964
asS'PF00696'
p7965
(lp7966
S'EC:2.7.2.2'
p7967
asS'PF00697'
p7968
(lp7969
S'EC:5.3.1.24'
p7970
asS'PF02833'
p7971
(lp7972
S'EC:3.6.1'
p7973
asS'PF09179'
p7974
(lp7975
S'EC:6.3'
p7976
asS'PF15979'
p7977
(lp7978
S'EC:3.2.1.131'
p7979
asS'PF09171'
p7980
(lp7981
S'EC:3.2.2'
p7982
asS'TIGR00195'
p7983
(lp7984
S'EC:3.1.11.2'
p7985
asS'TIGR00194'
p7986
(lp7987
S'EC:3.1.25'
p7988
asS'PF04191'
p7989
(lp7990
S'EC:2.1.1.16'
p7991
asS'PF01341'
p7992
(lp7993
S'EC:3.2.1'
p7994
asS'TIGR00190'
p7995
(lp7996
S'EC:4.1.99.17'
p7997
asS'PF09488'
p7998
(lp7999
S'EC:2.4.1.217'
p8000
asS'TIGR00192'
p8001
(lp8002
S'EC:3.5.1.5'
p8003
asS'PF00162'
p8004
(lp8005
S'EC:2.7.2.3'
p8006
asS'PF04199'
p8007
(lp8008
S'EC:3.5.1.9'
p8009
asS'PF01349'
p8010
(lp8011
S'EC:2.1.1.57'
p8012
asS'TIGR00198'
p8013
(lp8014
S'EC:1.11.1.6'
p8015
asS'TIGR01584'
p8016
(lp8017
S'EC:2.8.3.10'
p8018
asS'PF00768'
p8019
(lp8020
S'EC:3.4.16.4'
p8021
asS'PF04206'
p8022
(lp8023
S'EC:2.1.1.86'
p8024
asS'TIGR01583'
p8025
(lp8026
S'EC:1.2.1.2'
p8027
asS'PF04204'
p8028
(lp8029
S'EC:2.3.1.46'
p8030
asS'PF00764'
p8031
(lp8032
S'EC:6.3.4.5'
p8033
asS'TIGR01983'
p8034
(lp8035
S'EC:2.1.1.64'
p8036
asS'PF04209'
p8037
(lp8038
S'EC:1.13.11.5'
p8039
asS'PF04208'
p8040
(lp8041
S'EC:2.1.1.86'
p8042
asS'TIGR01588'
p8043
(lp8044
S'EC:4.1.3.6'
p8045
asS'PF00762'
p8046
(lp8047
S'EC:4.99.1.1'
p8048
asS'PF00763'
p8049
(lp8050
S'EC:1.5.1.5'
p8051
asS'PF00185'
p8052
(lp8053
S'EC:2.1.3'
p8054
asS'PF00186'
p8055
(lp8056
S'EC:1.5.1.3'
p8057
asS'PF00180'
p8058
(lp8059
S'EC:1.1.1'
p8060
asS'PF00182'
p8061
(lp8062
S'EC:3.2.1.14'
p8063
asS'TIGR00036'
p8064
(lp8065
S'EC:1.17.1.8'
p8066
asS'TIGR03532'
p8067
(lp8068
S'EC:2.3.1.89'
p8069
asS'TIGR03533'
p8070
(lp8071
S'EC:2.1.1'
p8072
asS'PF04428'
p8073
(lp8074
S'EC:2.7.1.32'
p8075
asS'TIGR03536'
p8076
(lp8077
S'EC:2.3.1.117'
p8078
asS'TIGR03537'
p8079
(lp8080
S'EC:2.6.1.17'
p8081
asS'TIGR03534'
p8082
(lp8083
S'EC:2.1.1'
p8084
asS'TIGR03535'
p8085
(lp8086
S'EC:2.3.1.117'
p8087
asS'TIGR00223'
p8088
(lp8089
S'EC:4.1.1.11'
p8090
asS'PF04422'
p8091
(lp8092
S'EC:1.2.1.2'
p8093
asS'TIGR00221'
p8094
(lp8095
S'EC:3.5.1.25'
p8096
asS'TIGR03885'
p8097
(lp8098
S'EC:1'
p8099
asS'TIGR00227'
p8100
(lp8101
S'EC:3.5.4'
p8102
asS'TIGR00225'
p8103
(lp8104
S'EC:3.4.21'
p8105
asS'TIGR00224'
p8106
(lp8107
S'EC:4.1.1.49'
p8108
asS'TIGR01059'
p8109
(lp8110
S'EC:5.99.1.3'
p8111
asS'TIGR01058'
p8112
(lp8113
S'EC:5.99.1'
p8114
asS'PF01343'
p8115
(lp8116
S'EC:3.4'
p8117
asS'TIGR01052'
p8118
(lp8119
S'EC:5.99.1.3'
p8120
asS'TIGR01051'
p8121
(lp8122
S'EC:5.99.1.2'
p8123
asS'TIGR01057'
p8124
(lp8125
S'EC:5.99.1.2'
p8126
asS'TIGR01056'
p8127
(lp8128
S'EC:5.99.1.2'
p8129
asS'TIGR01055'
p8130
(lp8131
S'EC:5.99.1'
p8132
asS'TIGR01054'
p8133
(lp8134
S'EC:3.6.4.12'
p8135
aS'EC:5.99.1.3'
p8136
asS'TIGR01298'
p8137
(lp8138
S'EC:3.1.13'
p8139
asS'TIGR01113'
p8140
(lp8141
S'EC:2.1.1.86'
p8142
asS'TIGR04048'
p8143
(lp8144
S'EC:3.5.5'
p8145
asS'PF08686'
p8146
(lp8147
S'EC:3.4'
p8148
asS'PF01589'
p8149
(lp8150
S'EC:3.4.21'
p8151
asS'TIGR01292'
p8152
(lp8153
S'EC:1.8.1.9'
p8154
asS'PF01583'
p8155
(lp8156
S'EC:2.7.1.25'
p8157
asS'PF00160'
p8158
(lp8159
S'EC:5.2.1.8'
p8160
asS'PF00507'
p8161
(lp8162
S'EC:1.6.5.3'
p8163
asS'TIGR01852'
p8164
(lp8165
S'EC:2.3.1.129'
p8166
asS'TIGR00199'
p8167
(lp8168
S'EC:3.5'
p8169
asS'PF00232'
p8170
(lp8171
S'EC:3.2.1'
p8172
asS'PF00233'
p8173
(lp8174
S'EC:3.1.4.17'
p8175
asS'TIGR02751'
p8176
(lp8177
S'EC:4.1.1.31'
p8178
asS'TIGR02753'
p8179
(lp8180
S'EC:1.15.1.1'
p8181
asS'PF04734'
p8182
(lp8183
S'EC:3.5.1.23'
p8184
asS'TIGR02755'
p8185
(lp8186
S'EC:2.3.1'
p8187
asS'TIGR02754'
p8188
(lp8189
S'EC:3.4.21'
p8190
asS'PF14583'
p8191
(lp8192
S'EC:4.2.2.6'
p8193
asS'TIGR00539'
p8194
(lp8195
S'EC:1.3.99.22'
p8196
asS'TIGR00538'
p8197
(lp8198
S'EC:1.3.99.22'
p8199
asS'PF11266'
p8200
(lp8201
S'EC:4.1.99'
p8202
asS'TIGR00535'
p8203
(lp8204
S'EC:4.1.1.50'
p8205
asS'TIGR00533'
p8206
(lp8207
S'EC:1.1.1.34'
p8208
asS'TIGR00532'
p8209
(lp8210
S'EC:1.1.1.88'
p8211
asS'TIGR00530'
p8212
(lp8213
S'EC:2.3.1.51'
p8214
asS'PF00342'
p8215
(lp8216
S'EC:5.3.1.9'
p8217
asS'TIGR03380'
p8218
(lp8219
S'EC:3.5.3.12'
p8220
asS'PF00346'
p8221
(lp8222
S'EC:1.6'
p8223
asS'PF00433'
p8224
(lp8225
S'EC:2.7.11'
p8226
asS'TIGR01127'
p8227
(lp8228
S'EC:4.3.1.19'
p8229
asS'PF04207'
p8230
(lp8231
S'EC:2.1.1.86'
p8232
asS'TIGR01125'
p8233
(lp8234
S'EC:2.1.1'
p8235
aS'EC:2.8.1'
p8236
asS'PF00349'
p8237
(lp8238
S'EC:2.7.1.1'
p8239
asS'PF00438'
p8240
(lp8241
S'EC:2.5.1.6'
p8242
asS'TIGR01122'
p8243
(lp8244
S'EC:2.6.1.42'
p8245
asS'PF06917'
p8246
(lp8247
S'EC:4.2.2.2'
p8248
asS'TIGR01580'
p8249
(lp8250
S'EC:1.7.99.4'
p8251
asS'PF08476'
p8252
(lp8253
S'EC:3.1.3.41'
p8254
asS'TIGR04444'
p8255
(lp8256
S'EC:4.1.3'
p8257
asS'TIGR00458'
p8258
(lp8259
S'EC:6.1.1.23'
p8260
asS'TIGR00459'
p8261
(lp8262
S'EC:6.1.1'
p8263
asS'TIGR00450'
p8264
(lp8265
S'EC:3.6'
p8266
asS'TIGR00452'
p8267
(lp8268
S'EC:2.1.1'
p8269
asS'TIGR00453'
p8270
(lp8271
S'EC:2.7.7.60'
p8272
asS'PF07355'
p8273
(lp8274
S'EC:1.21.4'
p8275
asS'TIGR00456'
p8276
(lp8277
S'EC:6.1.1.19'
p8278
asS'TIGR02134'
p8279
(lp8280
S'EC:2.2.1.2'
p8281
asS'PF14699'
p8282
(lp8283
S'EC:2.4.1.25'
p8284
asS'TIGR04448'
p8285
(lp8286
S'EC:3.5.2.10'
p8287
asS'TIGR02137'
p8288
(lp8289
S'EC:3.1.3.3'
p8290
asS'TIGR03753'
p8291
(lp8292
S'EC:1.14.99.36'
p8293
asS'TIGR01117'
p8294
(lp8295
S'EC:4.1.1.41'
p8296
asS'PF14696'
p8297
(lp8298
S'EC:1.13.11.27'
p8299
asS'PF06351'
p8300
(lp8301
S'EC:5.3.99.6'
p8302
asS'PF06350'
p8303
(lp8304
S'EC:3.1.1'
p8305
asS'TIGR01278'
p8306
(lp8307
S'EC:1.3.7.7'
p8308
asS'TIGR04567'
p8309
(lp8310
S'EC:2.7.7.6'
p8311
asS'TIGR00648'
p8312
(lp8313
S'EC:3.1'
p8314
asS'TIGR01879'
p8315
(lp8316
S'EC:3.5'
p8317
asS'TIGR01877'
p8318
(lp8319
S'EC:3.1'
p8320
asS'TIGR01768'
p8321
(lp8322
S'EC:2.5.1'
p8323
asS'PF12503'
p8324
(lp8325
S'EC:3.6'
p8326
asS'PF02329'
p8327
(lp8328
S'EC:4.1.1.22'
p8329
asS'TIGR00644'
p8330
(lp8331
S'EC:3.1'
p8332
asS'PF01510'
p8333
(lp8334
S'EC:3.5.1.28'
p8335
asS'TIGR02371'
p8336
(lp8337
S'EC:1.4.1.1'
p8338
asS'PF02326'
p8339
(lp8340
S'EC:3.6.1.34'
p8341
asS'TIGR02376'
p8342
(lp8343
S'EC:1.7.2.1'
p8344
asS'PF02324'
p8345
(lp8346
S'EC:2.4.1.5'
p8347
asS'TIGR02374'
p8348
(lp8349
S'EC:1.7.1.4'
p8350
asS'PF03404'
p8351
(lp8352
S'EC:1'
p8353
asS'TIGR01832'
p8354
(lp8355
S'EC:1.1.1.125'
p8356
asS'TIGR02478'
p8357
(lp8358
S'EC:2.7.1.11'
p8359
asS'TIGR02723'
p8360
(lp8361
S'EC:4.1.1'
p8362
asS'TIGR03119'
p8363
(lp8364
S'EC:2.3.1.101'
p8365
asS'TIGR03812'
p8366
(lp8367
S'EC:4.1.1.25'
p8368
asS'TIGR00642'
p8369
(lp8370
S'EC:5.4.99.2'
p8371
asS'PF14569'
p8372
(lp8373
S'EC:2.4.1.12'
p8374
asS'PF06007'
p8375
(lp8376
S'EC:4'
p8377
asS'TIGR01900'
p8378
(lp8379
S'EC:3.5.1.18'
p8380
asS'TIGR02211'
p8381
(lp8382
S'EC:3.6.3'
p8383
asS'PF02211'
p8384
(lp8385
S'EC:4.2.1.84'
p8386
asS'TIGR01527'
p8387
(lp8388
S'EC:2.7.7.1'
p8389
asS'PF02219'
p8390
(lp8391
S'EC:1.7.99.5'
p8392
asS'PF01909'
p8393
(lp8394
S'EC:2.7.7'
p8395
asS'TIGR03188'
p8396
(lp8397
S'EC:3.6.1.31'
p8398
asS'PF01903'
p8399
(lp8400
S'EC:4.99.1.3'
p8401
asS'PF01902'
p8402
(lp8403
S'EC:6.3.1.14'
p8404
asS'TIGR03181'
p8405
(lp8406
S'EC:1.2.4.1'
p8407
asS'TIGR03180'
p8408
(lp8409
S'EC:4.1.1'
p8410
asS'TIGR00228'
p8411
(lp8412
S'EC:3.1.22.4'
p8413
asS'PF11889'
p8414
(lp8415
S'EC:3.4.21'
p8416
asS'PF03186'
p8417
(lp8418
S'EC:4.1.1.81'
p8419
asS'PF11883'
p8420
(lp8421
S'EC:2.7.11'
p8422
asS'PF03630'
p8423
(lp8424
S'EC:2.7.1.33'
p8425
asS'PF03856'
p8426
(lp8427
S'EC:3.2.1.21'
p8428
asS'TIGR00729'
p8429
(lp8430
S'EC:3.1.26.4'
p8431
asS'PF02585'
p8432
(lp8433
S'EC:3.5.1.89'
p8434
asS'PF02580'
p8435
(lp8436
S'EC:3.1'
p8437
asS'PF02581'
p8438
(lp8439
S'EC:2.5.1.3'
p8440
asS'TIGR00222'
p8441
(lp8442
S'EC:2.1.2.11'
p8443
asS'PF00984'
p8444
(lp8445
S'EC:1.1.1'
p8446
asS'TIGR02103'
p8447
(lp8448
S'EC:3.2.1.41'
p8449
asS'TIGR02104'
p8450
(lp8451
S'EC:3.2.1.41'
p8452
asS'TIGR00588'
p8453
(lp8454
S'EC:3.2.2'
p8455
asS'PF02450'
p8456
(lp8457
S'EC:2.3.1'
p8458
asS'TIGR03539'
p8459
(lp8460
S'EC:2.6.1.17'
p8461
asS'PF02458'
p8462
(lp8463
S'EC:2.3.1.107'
p8464
asS'TIGR03989'
p8465
(lp8466
S'EC:1.1.99.36'
p8467
asS'PF02109'
p8468
(lp8469
S'EC:2.4.1.119'
p8470
asS'PF13336'
p8471
(lp8472
S'EC:3.1.2.1'
p8473
asS'PF05676'
p8474
(lp8475
S'EC:1.6.5.3'
p8476
asS'PF03989'
p8477
(lp8478
S'EC:5.99.1'
p8479
asS'PF02921'
p8480
(lp8481
S'EC:1.10.2.2'
p8482
asS'PF03459'
p8483
(lp8484
S'EC:3.6.3'
p8485
asS'PF02927'
p8486
(lp8487
S'EC:3.2.1.4'
p8488
asS'TIGR01524'
p8489
(lp8490
S'EC:3.6.3.2'
p8491
asS'PF02929'
p8492
(lp8493
S'EC:3.2.1.23'
p8494
asS'TIGR03295'
p8495
(lp8496
S'EC:1.12.98.1'
p8497
asS'PF03982'
p8498
(lp8499
S'EC:2.3.1'
p8500
asS'PF12324'
p8501
(lp8502
S'EC:4.99.1.2'
p8503
asS'TIGR03966'
p8504
(lp8505
S'EC:1'
p8506
asS'TIGR00344'
p8507
(lp8508
S'EC:6.1.1.7'
p8509
asS'PF04851'
p8510
(lp8511
S'EC:3'
p8512
asS'PF13243'
p8513
(lp8514
S'EC:5.4.99.17'
p8515
asS'PF13241'
p8516
(lp8517
S'EC:1.3.1.76'
p8518
asS'PF01002'
p8519
(lp8520
S'EC:3.4.21'
p8521
asS'TIGR01723'
p8522
(lp8523
S'EC:1.12.98.2'
p8524
asS'PF01001'
p8525
(lp8526
S'EC:3.4.21'
p8527
asS'PF13249'
p8528
(lp8529
S'EC:5.4.99.17'
p8530
asS'TIGR00888'
p8531
(lp8532
S'EC:6.3.5.2'
p8533
asS'PF08926'
p8534
(lp8535
S'EC:2.7.11'
p8536
asS'PF02074'
p8537
(lp8538
S'EC:3.4.17'
p8539
asS'PF02073'
p8540
(lp8541
S'EC:3.4.11'
p8542
asS'TIGR00054'
p8543
(lp8544
S'EC:3.4.24'
p8545
asS'TIGR02967'
p8546
(lp8547
S'EC:3.5.4.3'
p8548
asS'TIGR02965'
p8549
(lp8550
S'EC:1.17.1.4'
p8551
asS'TIGR00050'
p8552
(lp8553
S'EC:2.1.1'
p8554
asS'TIGR02963'
p8555
(lp8556
S'EC:1.17.1.4'
p8557
asS'TIGR00052'
p8558
(lp8559
S'EC:3.6.1'
p8560
asS'TIGR02961'
p8561
(lp8562
S'EC:3.5.3.4'
p8563
asS'TIGR02969'
p8564
(lp8565
S'EC:1.2.3.1'
p8566
asS'TIGR01264'
p8567
(lp8568
S'EC:2.6.1.5'
p8569
asS'TIGR03389'
p8570
(lp8571
S'EC:1.10.3.2'
p8572
asS'TIGR01266'
p8573
(lp8574
S'EC:3.7.1.2'
p8575
asS'TIGR01267'
p8576
(lp8577
S'EC:1.14.16.1'
p8578
asS'TIGR01260'
p8579
(lp8580
S'EC:3.6.3.14'
p8581
asS'TIGR01261'
p8582
(lp8583
S'EC:3.1.3.15'
p8584
asS'TIGR01262'
p8585
(lp8586
S'EC:5.2.1.2'
p8587
asS'PF09768'
p8588
(lp8589
S'EC:3.4.24'
p8590
asS'PF09764'
p8591
(lp8592
S'EC:3.5.1'
p8593
asS'TIGR01268'
p8594
(lp8595
S'EC:1.14.16.1'
p8596
asS'TIGR01269'
p8597
(lp8598
S'EC:1.14.16.2'
p8599
asS'PF01177'
p8600
(lp8601
S'EC:5.2.1.1'
p8602
asS'PF01174'
p8603
(lp8604
S'EC:3.5.1.2'
p8605
asS'PF01175'
p8606
(lp8607
S'EC:4.2.1.49'
p8608
asS'TIGR01466'
p8609
(lp8610
S'EC:2.1.1.131'
p8611
asS'TIGR01467'
p8612
(lp8613
S'EC:2.1.1.130'
p8614
asS'TIGR01464'
p8615
(lp8616
S'EC:4.1.1.37'
p8617
asS'TIGR01465'
p8618
(lp8619
S'EC:2.1.1.133'
p8620
asS'TIGR01469'
p8621
(lp8622
S'EC:2.1.1.107'
p8623
asS'PF16861'
p8624
(lp8625
S'EC:2.1.3.7'
p8626
asS'PF01179'
p8627
(lp8628
S'EC:1.4.3.21'
p8629
asS'PF09363'
p8630
(lp8631
S'EC:4.1.2.22'
p8632
asS'PF04989'
p8633
(lp8634
S'EC:2.1.1'
p8635
asS'PF09364'
p8636
(lp8637
S'EC:4.1.2.22'
p8638
asS'PF04987'
p8639
(lp8640
S'EC:2'
p8641
asS'TIGR02818'
p8642
(lp8643
S'EC:1.1.1.284'
p8644
aS'EC:1.1.1.1'
p8645
asS'TIGR04350'
p8646
(lp8647
S'EC:4.4'
p8648
asS'TIGR04425'
p8649
(lp8650
S'EC:4.2.3'
p8651
asS'PF08685'
p8652
(lp8653
S'EC:3.4.24'
p8654
asS'PF05853'
p8655
(lp8656
S'EC:2'
p8657
asS'PF01756'
p8658
(lp8659
S'EC:1.3.3.6'
p8660
asS'PF01757'
p8661
(lp8662
S'EC:2.3.1'
p8663
asS'TIGR03439'
p8664
(lp8665
S'EC:2.1.1'
p8666
asS'TIGR03438'
p8667
(lp8668
S'EC:2.1.1.44'
p8669
asS'PF01752'
p8670
(lp8671
S'EC:3.4.21'
p8672
asS'PF01750'
p8673
(lp8674
S'EC:3.4'
p8675
asS'PF01139'
p8676
(lp8677
S'EC:6.5.1'
p8678
asS'PF13631'
p8679
(lp8680
S'EC:1'
p8681
asS'TIGR00187'
p8682
(lp8683
S'EC:2.5.1.9'
p8684
asS'TIGR00184'
p8685
(lp8686
S'EC:6.3.4.4'
p8687
asS'TIGR00185'
p8688
(lp8689
S'EC:2.1.1.207'
p8690
asS'PF04185'
p8691
(lp8692
S'EC:3.1.4.3'
p8693
asS'TIGR00181'
p8694
(lp8695
S'EC:3.4.24'
p8696
asS'PF04188'
p8697
(lp8698
S'EC:2.4.1'
p8699
asS'TIGR01892'
p8700
(lp8701
S'EC:3.5.1.16'
p8702
asS'TIGR00188'
p8703
(lp8704
S'EC:3.1.26.5'
p8705
asS'PF00112'
p8706
(lp8707
S'EC:3.4'
p8708
asS'PF00759'
p8709
(lp8710
S'EC:3.2.1'
p8711
asS'PF04211'
p8712
(lp8713
S'EC:2.1.1.86'
p8714
asS'TIGR01924'
p8715
(lp8716
S'EC:2.7.11.1'
p8717
asS'TIGR01787'
p8718
(lp8719
S'EC:5.4'
p8720
asS'TIGR03213'
p8721
(lp8722
S'EC:1.13.11.39'
p8723
asS'TIGR01923'
p8724
(lp8725
S'EC:6.2.1.26'
p8726
asS'PF07649'
p8727
(lp8728
S'EC:1.8.1.8'
p8729
asS'PF00755'
p8730
(lp8731
S'EC:2.3'
p8732
asS'PF00757'
p8733
(lp8734
S'EC:2.7.10.1'
p8735
asS'TIGR01922'
p8736
(lp8737
S'EC:3.5.4.10'
p8738
asS'TIGR02618'
p8739
(lp8740
S'EC:4.1.99.2'
p8741
asS'PF05148'
p8742
(lp8743
S'EC:2.1.1'
p8744
asS'PF07748'
p8745
(lp8746
S'EC:3.2.1'
p8747
asS'PF07745'
p8748
(lp8749
S'EC:3.2.1'
p8750
asS'PF06026'
p8751
(lp8752
S'EC:5.3.1.6'
p8753
asS'TIGR00555'
p8754
(lp8755
S'EC:2.7.1.33'
p8756
asS'PF05925'
p8757
(lp8758
S'EC:3.1.3.41'
p8759
asS'TIGR03502'
p8760
(lp8761
S'EC:3.1'
p8762
asS'TIGR00506'
p8763
(lp8764
S'EC:4.1.99.12'
p8765
asS'PF08214'
p8766
(lp8767
S'EC:2.3.1.48'
p8768
asS'PF04431'
p8769
(lp8770
S'EC:4.2.2.2'
p8771
asS'PF04432'
p8772
(lp8773
S'EC:1.2.1.2'
p8774
asS'TIGR00237'
p8775
(lp8776
S'EC:3.1.11.6'
p8777
asS'PF08210'
p8778
(lp8779
S'EC:3.5.4'
p8780
asS'PF08211'
p8781
(lp8782
S'EC:3.5.4.5'
p8783
asS'TIGR00232'
p8784
(lp8785
S'EC:2.2.1.1'
p8786
asS'TIGR00233'
p8787
(lp8788
S'EC:6.1.1.2'
p8789
asS'TIGR03203'
p8790
(lp8791
S'EC:1.3.1.62'
p8792
asS'TIGR01048'
p8793
(lp8794
S'EC:4.1.1.20'
p8795
asS'PF10215'
p8796
(lp8797
S'EC:2.4.1.119'
p8798
asS'TIGR01041'
p8799
(lp8800
S'EC:3.6.3.14'
p8801
asS'TIGR03120'
p8802
(lp8803
S'EC:3.5.4.27'
p8804
asS'TIGR01043'
p8805
(lp8806
S'EC:3.6.3.14'
p8807
asS'TIGR01289'
p8808
(lp8809
S'EC:1.3.1.33'
p8810
asS'PF07636'
p8811
(lp8812
S'EC:3.1.6.12'
p8813
asS'TIGR01282'
p8814
(lp8815
S'EC:1.18.6.1'
p8816
asS'PF01596'
p8817
(lp8818
S'EC:2.1.1'
p8819
asS'TIGR01281'
p8820
(lp8821
S'EC:1.3.7.7'
p8822
asS'TIGR01286'
p8823
(lp8824
S'EC:1.18.6.1'
p8825
asS'PF01591'
p8826
(lp8827
S'EC:2.7.1.105'
p8828
asS'TIGR01284'
p8829
(lp8830
S'EC:1.18.6.1'
p8831
asS'PF01593'
p8832
(lp8833
S'EC:1'
p8834
asS'PF06580'
p8835
(lp8836
S'EC:2.7.3'
p8837
asS'PF00246'
p8838
(lp8839
S'EC:3.4.17'
p8840
asS'PF00245'
p8841
(lp8842
S'EC:3.1.3.41'
p8843
asS'PF04724'
p8844
(lp8845
S'EC:2.4.1.144'
p8846
asS'TIGR03619'
p8847
(lp8848
S'EC:1'
p8849
asS'TIGR02309'
p8850
(lp8851
S'EC:1.14.14.9'
p8852
asS'PF04722'
p8853
(lp8854
S'EC:3.1.3.16'
p8855
asS'PF04723'
p8856
(lp8857
S'EC:1.21.4.2'
p8858
asS'TIGR02748'
p8859
(lp8860
S'EC:2.5.1.30'
p8861
asS'TIGR02749'
p8862
(lp8863
S'EC:2.5.1'
p8864
asS'TIGR03617'
p8865
(lp8866
S'EC:1'
p8867
asS'TIGR03615'
p8868
(lp8869
S'EC:1.5.1.42'
p8870
asS'TIGR00520'
p8871
(lp8872
S'EC:3.5.1.1'
p8873
asS'TIGR00521'
p8874
(lp8875
S'EC:4.1.1.36'
p8876
aS'EC:6.3.2.5'
p8877
asS'TIGR00522'
p8878
(lp8879
S'EC:2.1.1.98'
p8880
asS'TIGR00525'
p8881
(lp8882
S'EC:4.1.2.25'
p8883
asS'TIGR00528'
p8884
(lp8885
S'EC:2.1.2.10'
p8886
asS'TIGR01131'
p8887
(lp8888
S'EC:3.6.3.14'
p8889
asS'TIGR04571'
p8890
(lp8891
S'EC:2.1.1'
p8892
asS'TIGR02752'
p8893
(lp8894
S'EC:2.1.1.163'
p8895
asS'TIGR01134'
p8896
(lp8897
S'EC:2.4.2.14'
p8898
asS'PF00404'
p8899
(lp8900
S'EC:3.2.1'
p8901
asS'TIGR01136'
p8902
(lp8903
S'EC:2.5.1.47'
p8904
asS'TIGR01137'
p8905
(lp8906
S'EC:4.2.1.22'
p8907
asS'PF13816'
p8908
(lp8909
S'EC:4.99.1.7'
p8910
asS'PF00408'
p8911
(lp8912
S'EC:5.4.2'
p8913
asS'TIGR04543'
p8914
(lp8915
S'EC:2.1.1.243'
p8916
asS'TIGR02306'
p8917
(lp8918
S'EC:6.5.1.3'
p8919
asS'TIGR03531'
p8920
(lp8921
S'EC:2.9.1.2'
p8922
asS'PF07167'
p8923
(lp8924
S'EC:2.3'
p8925
asS'TIGR04541'
p8926
(lp8927
S'EC:2.5.1.2'
p8928
asS'PF14681'
p8929
(lp8930
S'EC:2.4.2.9'
p8931
asS'TIGR00425'
p8932
(lp8933
S'EC:5.4.99'
p8934
asS'TIGR00421'
p8935
(lp8936
S'EC:4.1.1'
p8937
asS'TIGR00420'
p8938
(lp8939
S'EC:2.1.1.61'
p8940
asS'TIGR00068'
p8941
(lp8942
S'EC:4.4.1.5'
p8943
asS'TIGR04012'
p8944
(lp8945
S'EC:6.3.2'
p8946
asS'TIGR04545'
p8947
(lp8948
S'EC:1.3.99'
p8949
asS'TIGR03763'
p8950
(lp8951
S'EC:3.4.22'
p8952
asS'TIGR03762'
p8953
(lp8954
S'EC:3.4.22'
p8955
asS'TIGR02336'
p8956
(lp8957
S'EC:2.4.1.211'
p8958
asS'TIGR00067'
p8959
(lp8960
S'EC:5.1.1.3'
p8961
asS'TIGR00066'
p8962
(lp8963
S'EC:2.3.2.2'
p8964
asS'TIGR04018'
p8965
(lp8966
S'EC:1.8'
p8967
asS'TIGR01865'
p8968
(lp8969
S'EC:3.1'
p8970
asS'TIGR01862'
p8971
(lp8972
S'EC:1.18.6.1'
p8973
asS'TIGR01860'
p8974
(lp8975
S'EC:1.18.6.1'
p8976
asS'TIGR01861'
p8977
(lp8978
S'EC:1.18.6.1'
p8979
asS'PF12513'
p8980
(lp8981
S'EC:3.6'
p8982
asS'TIGR02368'
p8983
(lp8984
S'EC:2.1.1.249'
p8985
asS'TIGR02911'
p8986
(lp8987
S'EC:1.8'
p8988
asS'TIGR02365'
p8989
(lp8990
S'EC:2.7'
p8991
asS'TIGR02367'
p8992
(lp8993
S'EC:6.1.1.26'
p8994
asS'TIGR02360'
p8995
(lp8996
S'EC:1.14.13.2'
p8997
asS'PF06165'
p8998
(lp8999
S'EC:2.4.1.49'
p9000
asS'TIGR02363'
p9001
(lp9002
S'EC:2.7.1'
p9003
asS'TIGR00142'
p9004
(lp9005
S'EC:3.4.23'
p9006
asS'PF03539'
p9007
(lp9008
S'EC:3.4.23'
p9009
asS'PF14572'
p9010
(lp9011
S'EC:2.7.6.1'
p9012
asS'TIGR03586'
p9013
(lp9014
S'EC:2.5.1.97'
p9015
asS'TIGR01391'
p9016
(lp9017
S'EC:2.7.7'
p9018
asS'PF16683'
p9019
(lp9020
S'EC:2.3.2.13'
p9021
asS'PF02261'
p9022
(lp9023
S'EC:4.1.1.11'
p9024
asS'PF02267'
p9025
(lp9026
S'EC:3.2.2.5'
p9027
asS'TIGR01917'
p9028
(lp9029
S'EC:1.21.4.2'
p9030
asS'TIGR01919'
p9031
(lp9032
S'EC:5.3.1.16'
p9033
aS'EC:5.3.1.24'
p9034
asS'TIGR00884'
p9035
(lp9036
S'EC:6.3.5.2'
p9037
asS'TIGR03198'
p9038
(lp9039
S'EC:1.17.1.4'
p9040
asS'TIGR03199'
p9041
(lp9042
S'EC:1.17.1.4'
p9043
asS'TIGR03194'
p9044
(lp9045
S'EC:1.3.7.9'
p9046
asS'TIGR03195'
p9047
(lp9048
S'EC:1.3.7.9'
p9049
asS'TIGR03196'
p9050
(lp9051
S'EC:1.17.1.4'
p9052
asS'PF01913'
p9053
(lp9054
S'EC:2.3.1.101'
p9055
asS'TIGR04026'
p9056
(lp9057
S'EC:1'
p9058
asS'PF01915'
p9059
(lp9060
S'EC:3.2.1'
p9061
asS'PF12202'
p9062
(lp9063
S'EC:2.7.11'
p9064
asS'TIGR03193'
p9065
(lp9066
S'EC:1.3.7.9'
p9067
asS'PF03199'
p9068
(lp9069
S'EC:6.3.2.3'
p9070
asS'PF11896'
p9071
(lp9072
S'EC:3.2.1'
p9073
asS'PF03972'
p9074
(lp9075
S'EC:4.2.1.79'
p9076
asS'PF03623'
p9077
(lp9078
S'EC:2.7.10'
p9079
asS'PF02868'
p9080
(lp9081
S'EC:3.4.24'
p9082
asS'TIGR01128'
p9083
(lp9084
S'EC:2.7.7.7'
p9085
asS'PF02866'
p9086
(lp9087
S'EC:1.1.1'
p9088
asS'TIGR01556'
p9089
(lp9090
S'EC:2.4.1'
p9091
asS'TIGR02176'
p9092
(lp9093
S'EC:1.2.7.1'
p9094
asS'TIGR02170'
p9095
(lp9096
S'EC:2.1.1.148'
p9097
asS'TIGR02173'
p9098
(lp9099
S'EC:2.7.4.14'
p9100
asS'PF03996'
p9101
(lp9102
S'EC:3.1'
p9103
asS'TIGR03996'
p9104
(lp9105
S'EC:1'
p9106
asS'PF07429'
p9107
(lp9108
S'EC:2.4.1'
p9109
asS'TIGR03990'
p9110
(lp9111
S'EC:5.4.2.10'
p9112
asS'TIGR03991'
p9113
(lp9114
S'EC:2.7.7.23'
p9115
aS'EC:2.3.1.157'
p9116
asS'TIGR03992'
p9117
(lp9118
S'EC:2.7.7.23'
p9119
aS'EC:2.3.1.157'
p9120
asS'TIGR01123'
p9121
(lp9122
S'EC:2.6.1.42'
p9123
asS'TIGR03999'
p9124
(lp9125
S'EC:2.4.1'
p9126
asS'TIGR01608'
p9127
(lp9128
S'EC:4.1.3.6'
p9129
asS'PF14829'
p9130
(lp9131
S'EC:2.3.1.15'
p9132
asS'TIGR00308'
p9133
(lp9134
S'EC:2.1.1'
p9135
asS'TIGR01121'
p9136
(lp9137
S'EC:2.6.1.21'
p9138
asS'PF02669'
p9139
(lp9140
S'EC:3.6.3.12'
p9141
asS'PF02668'
p9142
(lp9143
S'EC:1.14.11.1'
p9144
asS'PF02915'
p9145
(lp9146
S'EC:1'
p9147
asS'PF02666'
p9148
(lp9149
S'EC:4.1.1.65'
p9150
asS'PF02665'
p9151
(lp9152
S'EC:1.7.99.4'
p9153
asS'PF02664'
p9154
(lp9155
S'EC:4.4.1.21'
p9156
asS'PF02911'
p9157
(lp9158
S'EC:2.1.2'
p9159
asS'PF03445'
p9160
(lp9161
S'EC:2.7.7.59'
p9162
asS'PF14824'
p9163
(lp9164
S'EC:4.99.1.4'
p9165
asS'PF03447'
p9166
(lp9167
S'EC:1'
p9168
asS'PF02486'
p9169
(lp9170
S'EC:5.99.1'
p9171
asS'PF02485'
p9172
(lp9173
S'EC:2.4.1'
p9174
asS'TIGR01559'
p9175
(lp9176
S'EC:2.5.1.21'
p9177
asS'TIGR03970'
p9178
(lp9179
S'EC:1'
p9180
asS'TIGR03971'
p9181
(lp9182
S'EC:1.1.99'
p9183
asS'TIGR01496'
p9184
(lp9185
S'EC:2.5.1.15'
p9186
asS'PF05060'
p9187
(lp9188
S'EC:2.4.1.143'
p9189
asS'TIGR01738'
p9190
(lp9191
S'EC:3.1.1.85'
p9192
asS'PF05063'
p9193
(lp9194
S'EC:2.1.1'
p9195
asS'TIGR02005'
p9196
(lp9197
S'EC:2.7.1.69'
p9198
asS'TIGR02004'
p9199
(lp9200
S'EC:2.7.1.69'
p9201
asS'TIGR02006'
p9202
(lp9203
S'EC:2.8.1.7'
p9204
asS'TIGR01736'
p9205
(lp9206
S'EC:6.3.5.3'
p9207
asS'TIGR01737'
p9208
(lp9209
S'EC:6.3.5.3'
p9210
asS'TIGR01734'
p9211
(lp9212
S'EC:6.1.1.13'
p9213
asS'TIGR01735'
p9214
(lp9215
S'EC:6.3.5.3'
p9216
asS'TIGR01280'
p9217
(lp9218
S'EC:3.1.11.6'
p9219
asS'PF02007'
p9220
(lp9221
S'EC:2.1.1.86'
p9222
asS'PF02005'
p9223
(lp9224
S'EC:2.1.1.32'
p9225
asS'PF02333'
p9226
(lp9227
S'EC:3.1.3.8'
p9228
asS'TIGR01998'
p9229
(lp9230
S'EC:2.7.1.69'
p9231
asS'PF01293'
p9232
(lp9233
S'EC:4.1.1.49'
p9234
asS'PF01295'
p9235
(lp9236
S'EC:4.6.1.1'
p9237
asS'TIGR01455'
p9238
(lp9239
S'EC:5.4.2.10'
p9240
asS'PF10672'
p9241
(lp9242
S'EC:2.1.1'
p9243
asS'TIGR01450'
p9244
(lp9245
S'EC:3.1.11.5'
p9246
asS'PF08802'
p9247
(lp9248
S'EC:1.10.9.1'
p9249
asS'PF06433'
p9250
(lp9251
S'EC:1.4.99.3'
p9252
asS'PF05118'
p9253
(lp9254
S'EC:1.14.11.16'
p9255
asS'PF02710'
p9256
(lp9257
S'EC:3.1'
p9258
asS'PF05440'
p9259
(lp9260
S'EC:2.1.1.86'
p9261
asS'TIGR04432'
p9262
(lp9263
S'EC:2.1.1.224'
p9264
asS'PF01729'
p9265
(lp9266
S'EC:2.4.2.19'
p9267
asS'PF01728'
p9268
(lp9269
S'EC:2.1.1'
p9270
asS'TIGR04436'
p9271
(lp9272
S'EC:1'
p9273
asS'TIGR04437'
p9274
(lp9275
S'EC:2.4.1'
p9276
asS'PF08429'
p9277
(lp9278
S'EC:1.14.11'
p9279
asS'TIGR03542'
p9280
(lp9281
S'EC:2.6.1.83'
p9282
asS'TIGR02827'
p9283
(lp9284
S'EC:1.17.4.2'
p9285
asS'PF08354'
p9286
(lp9287
S'EC:1.3.1.9'
p9288
asS'TIGR02825'
p9289
(lp9290
S'EC:1.3.1.74'
p9291
aS'EC:1.3.1.48'
p9292
asS'TIGR04439'
p9293
(lp9294
S'EC:1.14.13'
p9295
asS'TIGR04348'
p9296
(lp9297
S'EC:2.4.1'
p9298
asS'PF01726'
p9299
(lp9300
S'EC:3.4.21.88'
p9301
asS'PF01725'
p9302
(lp9303
S'EC:3'
p9304
asS'TIGR02820'
p9305
(lp9306
S'EC:4.4.1.22'
p9307
asS'PF13640'
p9308
(lp9309
S'EC:1.14.11'
p9310
asS'TIGR02505'
p9311
(lp9312
S'EC:1.17.4.2'
p9313
asS'PF09111'
p9314
(lp9315
S'EC:3.6.1'
p9316
asS'TIGR00759'
p9317
(lp9318
S'EC:1.2.4.1'
p9319
asS'TIGR03444'
p9320
(lp9321
S'EC:6.3.2.2'
p9322
asS'TIGR04266'
p9323
(lp9324
S'EC:1.1.99.37'
p9325
asS'TIGR00758'
p9326
(lp9327
S'EC:3.2.2'
p9328
asS'TIGR03151'
p9329
(lp9330
S'EC:1.3.1'
p9331
asS'PF00743'
p9332
(lp9333
S'EC:1.14.13.8'
p9334
asS'TIGR00306'
p9335
(lp9336
S'EC:5.4.2.12'
p9337
asS'TIGR00455'
p9338
(lp9339
S'EC:2.7.1.25'
p9340
asS'PF08516'
p9341
(lp9342
S'EC:3.4.24'
p9343
asS'PF08515'
p9344
(lp9345
S'EC:2.7.11'
p9346
asS'TIGR04301'
p9347
(lp9348
S'EC:4.1.1.17'
p9349
asS'TIGR04506'
p9350
(lp9351
S'EC:2.2.1.8'
p9352
asS'TIGR04507'
p9353
(lp9354
S'EC:2.5.1.63'
p9355
asS'PF04227'
p9356
(lp9357
S'EC:3.2'
p9358
asS'TIGR00457'
p9359
(lp9360
S'EC:6.1.1.22'
p9361
asS'TIGR02956'
p9362
(lp9363
S'EC:2.7.13.3'
p9364
asS'PF04223'
p9365
(lp9366
S'EC:2.8.3.10'
p9367
asS'TIGR04239'
p9368
(lp9369
S'EC:3.4.21.105'
p9370
asS'PF01435'
p9371
(lp9372
S'EC:3.4.24'
p9373
asS'PF01434'
p9374
(lp9375
S'EC:3.4.24'
p9376
asS'PF01432'
p9377
(lp9378
S'EC:3.4.24'
p9379
asS'PF01431'
p9380
(lp9381
S'EC:3.4.24'
p9382
asS'PF12689'
p9383
(lp9384
S'EC:3.1.3.41'
p9385
asS'PF07757'
p9386
(lp9387
S'EC:2.1.1'
p9388
asS'TIGR04234'
p9389
(lp9390
S'EC:2.7.7.48'
p9391
asS'PF09604'
p9392
(lp9393
S'EC:3.6.3.12'
p9394
asS'PF02903'
p9395
(lp9396
S'EC:3.2.1'
p9397
asS'PF05933'
p9398
(lp9399
S'EC:3.6.3.14'
p9400
asS'PF08735'
p9401
(lp9402
S'EC:1.97.1.4'
p9403
asS'PF09594'
p9404
(lp9405
S'EC:2.4.1'
p9406
asS'PF00524'
p9407
(lp9408
S'EC:3.6'
p9409
asS'TIGR00088'
p9410
(lp9411
S'EC:2.1.1.228'
p9412
asS'TIGR00087'
p9413
(lp9414
S'EC:3.1.3.5'
p9415
aS'EC:3.1.3.6'
p9416
asS'TIGR00084'
p9417
(lp9418
S'EC:3.6.4.12'
p9419
asS'TIGR00083'
p9420
(lp9421
S'EC:2.7.1.26'
p9422
aS'EC:2.7.7.2'
p9423
asS'TIGR00081'
p9424
(lp9425
S'EC:6.3.2.6'
p9426
asS'TIGR00080'
p9427
(lp9428
S'EC:2.1.1.77'
p9429
asS'PF07992'
p9430
(lp9431
S'EC:1'
p9432
asS'PF07991'
p9433
(lp9434
S'EC:1.1.1.86'
p9435
asS'PF07994'
p9436
(lp9437
S'EC:5.5.1.4'
p9438
asS'PF07995'
p9439
(lp9440
S'EC:1.1.5'
p9441
asS'PF07578'
p9442
(lp9443
S'EC:2.4.1.182'
p9444
asS'PF06574'
p9445
(lp9446
S'EC:2.7.7.2'
p9447
asS'PF00255'
p9448
(lp9449
S'EC:1.11.1.9'
p9450
asS'PF04715'
p9451
(lp9452
S'EC:4.1.3.27'
p9453
asS'TIGR03609'
p9454
(lp9455
S'EC:2'
p9456
asS'TIGR03448'
p9457
(lp9458
S'EC:2.3.1.189'
p9459
asS'PF04716'
p9460
(lp9461
S'EC:1.6.5.3'
p9462
asS'TIGR01187'
p9463
(lp9464
S'EC:3.6.3.31'
p9465
asS'TIGR02779'
p9466
(lp9467
S'EC:6.5.1.1'
p9468
asS'TIGR03603'
p9469
(lp9470
S'EC:6.3'
p9471
asS'PF06973'
p9472
(lp9473
S'EC:6.3'
p9474
asS'TIGR00554'
p9475
(lp9476
S'EC:2.7.1.33'
p9477
asS'TIGR00557'
p9478
(lp9479
S'EC:1.1.1.262'
p9480
asS'TIGR00551'
p9481
(lp9482
S'EC:1.4.3.16'
p9483
asS'TIGR00446'
p9484
(lp9485
S'EC:2.1.1'
p9486
asS'TIGR00553'
p9487
(lp9488
S'EC:2.6.1.85'
p9489
asS'PF06974'
p9490
(lp9491
S'EC:2.3.1.20'
p9492
asS'TIGR03948'
p9493
(lp9494
S'EC:2.8.3'
p9495
asS'TIGR00559'
p9496
(lp9497
S'EC:2.6.99.2'
p9498
asS'TIGR00558'
p9499
(lp9500
S'EC:1.4.3.5'
p9501
asS'TIGR01145'
p9502
(lp9503
S'EC:3.6.3.14'
p9504
asS'TIGR01144'
p9505
(lp9506
S'EC:3.6.3.14'
p9507
asS'TIGR01147'
p9508
(lp9509
S'EC:3.6.3.14'
p9510
asS'TIGR01146'
p9511
(lp9512
S'EC:3.6.3.14'
p9513
asS'TIGR01141'
p9514
(lp9515
S'EC:2.6.1.9'
p9516
asS'TIGR01140'
p9517
(lp9518
S'EC:4.1.1.81'
p9519
asS'TIGR01143'
p9520
(lp9521
S'EC:6.3.2.10'
p9522
asS'TIGR01142'
p9523
(lp9524
S'EC:2.1.2'
p9525
asS'TIGR01149'
p9526
(lp9527
S'EC:2.1.1.86'
p9528
asS'PF00413'
p9529
(lp9530
S'EC:3.4.24'
p9531
asS'PF07194'
p9532
(lp9533
S'EC:2.7.3'
p9534
asS'TIGR00445'
p9535
(lp9536
S'EC:2.7.8.13'
p9537
asS'TIGR02487'
p9538
(lp9539
S'EC:1.17.4.2'
p9540
asS'TIGR02486'
p9541
(lp9542
S'EC:1.97.1'
p9543
asS'TIGR02482'
p9544
(lp9545
S'EC:2.7.1.11'
p9546
asS'PF09907'
p9547
(lp9548
S'EC:3.1'
p9549
asS'TIGR00438'
p9550
(lp9551
S'EC:2.1.1.166'
p9552
asS'PF06481'
p9553
(lp9554
S'EC:1.10.3'
p9555
asS'PF06480'
p9556
(lp9557
S'EC:3.4.24'
p9558
asS'TIGR00432'
p9559
(lp9560
S'EC:2.4.2.48'
p9561
asS'TIGR00433'
p9562
(lp9563
S'EC:2.8.1.6'
p9564
asS'TIGR00430'
p9565
(lp9566
S'EC:2.4.2.29'
p9567
asS'TIGR00431'
p9568
(lp9569
S'EC:5.4.99.25'
p9570
asS'TIGR04544'
p9571
(lp9572
S'EC:2.6'
p9573
asS'PF07284'
p9574
(lp9575
S'EC:4.2.1'
p9576
asS'PF06374'
p9577
(lp9578
S'EC:1.6.5.3'
p9579
asS'TIGR01853'
p9580
(lp9581
S'EC:2.3.1.191'
p9582
asS'TIGR01974'
p9583
(lp9584
S'EC:1.6'
p9585
asS'TIGR01851'
p9586
(lp9587
S'EC:1.2.1.38'
p9588
asS'TIGR01850'
p9589
(lp9590
S'EC:1.2.1.38'
p9591
asS'TIGR01857'
p9592
(lp9593
S'EC:6.3.5.3'
p9594
asS'TIGR01855'
p9595
(lp9596
S'EC:2.4.2'
p9597
asS'TIGR01854'
p9598
(lp9599
S'EC:3.6.1.54'
p9600
asS'TIGR01859'
p9601
(lp9602
S'EC:4.1.2.13'
p9603
asS'TIGR01858'
p9604
(lp9605
S'EC:4.1.2'
p9606
asS'PF06628'
p9607
(lp9608
S'EC:1.11.1.6'
p9609
asS'TIGR02390'
p9610
(lp9611
S'EC:2.7.7.6'
p9612
asS'PF12529'
p9613
(lp9614
S'EC:2.4.2.26'
p9615
asS'TIGR02397'
p9616
(lp9617
S'EC:2.7.7.7'
p9618
asS'TIGR02399'
p9619
(lp9620
S'EC:3.1.3.69'
p9621
asS'TIGR02398'
p9622
(lp9623
S'EC:2.4.1.213'
p9624
asS'TIGR00063'
p9625
(lp9626
S'EC:3.5.4.16'
p9627
asS'PF01244'
p9628
(lp9629
S'EC:3.4.13'
p9630
asS'TIGR00720'
p9631
(lp9632
S'EC:4.3.1.17'
p9633
asS'PF03059'
p9634
(lp9635
S'EC:2.5.1.43'
p9636
asS'PF03054'
p9637
(lp9638
S'EC:2'
p9639
asS'PF03051'
p9640
(lp9641
S'EC:3.4.22'
p9642
asS'TIGR01920'
p9643
(lp9644
S'EC:2.7.1.71'
p9645
asS'TIGR04468'
p9646
(lp9647
S'EC:5.4.3'
p9648
asS'TIGR01120'
p9649
(lp9650
S'EC:5.3.1.6'
p9651
asS'PF01715'
p9652
(lp9653
S'EC:2.5.1.8'
p9654
asS'PF06021'
p9655
(lp9656
S'EC:2.3.1.13'
p9657
asS'TIGR01925'
p9658
(lp9659
S'EC:2.7.11.1'
p9660
asS'PF02273'
p9661
(lp9662
S'EC:2.3'
p9663
asS'PF02274'
p9664
(lp9665
S'EC:2.1.4.2'
p9666
asS'PF02275'
p9667
(lp9668
S'EC:3.5.1.23'
p9669
asS'TIGR01921'
p9670
(lp9671
S'EC:1.4.1.16'
p9672
asS'PF02277'
p9673
(lp9674
S'EC:2.4.2.21'
p9675
asS'PF02278'
p9676
(lp9677
S'EC:4.2.2.1'
p9678
asS'PF01493'
p9679
(lp9680
S'EC:1'
p9681
asS'TIGR01929'
p9682
(lp9683
S'EC:4.1.3.36'
p9684
asS'TIGR01928'
p9685
(lp9686
S'EC:4.2.1.113'
p9687
asS'TIGR03161'
p9688
(lp9689
S'EC:3.1.3.73'
p9690
asS'TIGR03160'
p9691
(lp9692
S'EC:2.4.2.21'
p9693
asS'TIGR04466'
p9694
(lp9695
S'EC:4.1'
p9696
asS'TIGR03165'
p9697
(lp9698
S'EC:3.6.3'
p9699
asS'TIGR03164'
p9700
(lp9701
S'EC:4.1.1'
p9702
asS'TIGR03167'
p9703
(lp9704
S'EC:2.9.1'
p9705
asS'TIGR03166'
p9706
(lp9707
S'EC:3.6.3'
p9708
asS'TIGR03168'
p9709
(lp9710
S'EC:2.7.1'
p9711
asS'PF03618'
p9712
(lp9713
S'EC:2.7'
p9714
asS'TIGR02378'
p9715
(lp9716
S'EC:1.7.1.4'
p9717
asS'PF03612'
p9718
(lp9719
S'EC:2.7.1.69'
p9720
asS'TIGR01704'
p9721
(lp9722
S'EC:3.2.2.16'
p9723
aS'EC:3.2.2.9'
p9724
asS'PF16141'
p9725
(lp9726
S'EC:3.2.1.14'
p9727
asS'TIGR02372'
p9728
(lp9729
S'EC:6.2.1.12'
p9730
asS'TIGR02164'
p9731
(lp9732
S'EC:1.7.2.3'
p9733
asS'PF10440'
p9734
(lp9735
S'EC:2.1.1.43'
p9736
asS'PF02018'
p9737
(lp9738
S'EC:3.2'
p9739
asS'PF12300'
p9740
(lp9741
S'EC:3.6'
p9742
asS'TIGR03388'
p9743
(lp9744
S'EC:1.10.3.3'
p9745
asS'PF02474'
p9746
(lp9747
S'EC:2.3'
p9748
asS'PF03275'
p9749
(lp9750
S'EC:5.4.99.9'
p9751
asS'PF02902'
p9752
(lp9753
S'EC:3.4'
p9754
asS'PF02675'
p9755
(lp9756
S'EC:4.1.1.50'
p9757
asS'PF02900'
p9758
(lp9759
S'EC:1'
p9760
asS'TIGR04166'
p9761
(lp9762
S'EC:2.1.1.86'
p9763
asS'PF03279'
p9764
(lp9765
S'EC:2'
p9766
asS'PF02673'
p9767
(lp9768
S'EC:3.6.1.27'
p9769
asS'TIGR02883'
p9770
(lp9771
S'EC:3.5.1.28'
p9772
asS'PF11648'
p9773
(lp9774
S'EC:3.6'
p9775
asS'TIGR02321'
p9776
(lp9777
S'EC:3.11.1.3'
p9778
asS'TIGR03946'
p9779
(lp9780
S'EC:1.14'
p9781
asS'PF11640'
p9782
(lp9783
S'EC:2.7.11.1'
p9784
asS'TIGR01815'
p9785
(lp9786
S'EC:4.1.3.27'
p9787
asS'PF05681'
p9788
(lp9789
S'EC:4.2.1.2'
p9790
asS'TIGR02701'
p9791
(lp9792
S'EC:4.2.1.1'
p9793
asS'TIGR02013'
p9794
(lp9795
S'EC:2.7.7.6'
p9796
asS'TIGR02017'
p9797
(lp9798
S'EC:3.5.1.68'
p9799
asS'TIGR02014'
p9800
(lp9801
S'EC:1.18'
p9802
asS'TIGR02015'
p9803
(lp9804
S'EC:1.18.1'
p9805
asS'TIGR01706'
p9806
(lp9807
S'EC:1.7.99.4'
p9808
asS'TIGR02477'
p9809
(lp9810
S'EC:2.7.1.90'
p9811
asS'TIGR01703'
p9812
(lp9813
S'EC:1.7'
p9814
asS'TIGR01702'
p9815
(lp9816
S'EC:1.2.99.2'
p9817
asS'TIGR01700'
p9818
(lp9819
S'EC:2.4.2.1'
p9820
asS'PF12011'
p9821
(lp9822
S'EC:3.6.1.15'
p9823
asS'PF02877'
p9824
(lp9825
S'EC:2.4.2.30'
p9826
asS'PF02875'
p9827
(lp9828
S'EC:6'
p9829
asS'PF02872'
p9830
(lp9831
S'EC:3'
p9832
asS'PF02873'
p9833
(lp9834
S'EC:1.1.1.158'
p9835
asS'TIGR03381'
p9836
(lp9837
S'EC:3.5.1.53'
p9838
asS'PF02011'
p9839
(lp9840
S'EC:3.2.1.4'
p9841
asS'TIGR03383'
p9842
(lp9843
S'EC:1.7.3.3'
p9844
asS'TIGR03385'
p9845
(lp9846
S'EC:1.8.1.14'
p9847
asS'PF02015'
p9848
(lp9849
S'EC:3.2.1.4'
p9850
asS'PF02878'
p9851
(lp9852
S'EC:5.4.2'
p9853
asS'PF02879'
p9854
(lp9855
S'EC:5.4.2'
p9856
as.