(dp0
S'BGC0000561|tepT'
p1
(dp2
S'PF00005'
p3
(lp4
(lp5
I482
aI629
aF2.4e-24
aasS'PF03412'
p6
(lp7
(lp8
I7
aI130
aF2.8e-31
aasS'PF00664'
p9
(lp10
(lp11
I162
aI422
aF1.9e-12
aassS'BGC0000602|sbo'
p12
(dp13
S'PF11420'
p14
(lp15
(lp16
I9
aI43
aF3.6e-28
aassS'BGC0000563|venT'
p17
(dp18
S'PF00005'
p19
(lp20
(lp21
I56
aI198
aF2e-31
aassS'BGC0000561|tepR'
p22
(dp23
S'PF00196'
p24
(lp25
(lp26
I55
aI109
aF2.4e-15
aassS'BGC0000495|ACR33038.1'
p27
(dp28
S'PF00553'
p29
(lp30
(lp31
I34
aI132
aF1.3e-29
aassS'BGC0000489|as-48C'
p32
(dp33
S'PF01944'
p34
(lp35
(lp36
I19
aI173
aF8.3e-11
aassS'BGC0000503|cinR1'
p37
(dp38
S'PF03704'
p39
(lp40
(lp41
I104
aI249
aF2.7999999999999998e-36
aasS'PF00486'
p42
(lp43
(lp44
I26
aI95
aF1.4e-08
aassS'BGC0000489|as-48D'
p45
(dp46
S'PF00005'
p47
(lp48
(lp49
I22
aI163
aF2.7e-23
aassS'BGC0000613|tpdI'
p50
(dp51
S'PF04055'
p52
(lp53
(lp54
I12
aI187
aF9.900000000000001e-18
aassS'BGC0000614|ACN52300.1'
p55
(dp56
S'PF00501'
p57
(lp58
(lp59
I109
aI352
aF3.8e-15
aassS'BGC0000490|garA'
p60
(dp61
S'PF09221'
p62
(lp63
(lp64
I7
aI61
aF8.7e-06
aassS'BGC0000561|tepF'
p65
(dp66
S'PF00005'
p67
(lp68
(lp69
I18
aI157
aF1.6000000000000001e-28
aassS'BGC0000490|garC'
p70
(dp71
S'PF00005'
p72
(lp73
(lp74
I24
aI160
aF3.2e-14
aassS'BGC0000490|garD'
p75
(dp76
S'PF01944'
p77
(lp78
(lp79
I11
aI160
aF2.7999999999999996e-16
aassS'BGC0000561|tepA'
p80
(dp81
S'PF04604'
p82
(lp83
(lp84
I1
aI51
aF1.1000000000000002e-17
aassS'BGC0000614|ACN52295.1'
p85
(dp86
S'PF14028'
p87
(lp88
(lp89
I17
aI345
aF1e-24
aassS'BGC0000561|tepM'
p90
(dp91
S'PF13575'
p92
(lp93
(lp94
I103
aI459
aF1.1999999999999999e-57
aasS'PF05147'
p95
(lp96
(lp97
I618
aI831
aF2.1e-27
aassS'BGC0000495|ACR33043.1'
p98
(dp99
S'PF12697'
p100
(lp101
(lp102
I12
aI199
aF3.5000000000000003e-10
aassS'BGC0000477|truD'
p103
(dp104
S'PF02624'
p105
(lp106
(lp107
I414
aI745
aF1.5999999999999999e-96
aassS'BGC0000477|truG'
p108
(dp109
S'PF00082'
p110
(lp111
(lp112
I300
aI634
aF2e-18
aassS'BGC0000506|etnF'
p113
(dp114
S'PF00005'
p115
(lp116
(lp117
I31
aI167
aF5.9000000000000005e-33
aassS'BGC0000506|etnE'
p118
(dp119
S'PF12730'
p120
(lp121
(lp122
I5
aI167
aF8e-08
aassS'BGC0000469|AFV25491.1'
p123
(dp124
S'PF02378'
p125
(lp126
(lp127
I28
aI338
aF1.6e-72
aassS'BGC0000506|etnC'
p128
(dp129
S'PF05147'
p130
(lp131
(lp132
I48
aI440
aF9.5e-90
aassS'BGC0000506|etnB'
p133
(dp134
S'PF14028'
p135
(lp136
(lp137
I756
aI1013
aF1.7e-30
aasS'PF04738'
p138
(lp139
(lp140
I40
aI682
aF2.5e-127
aassS'BGC0000588|ACF22187.1'
p141
(dp142
S'PF06406'
p143
(lp144
(lp145
I17
aI333
aF4.599999999999999e-147
aassS'BGC0000539|rep'
p146
(dp147
S'PF06970'
p148
(lp149
(lp150
I5
aI87
aF4.7000000000000004e-18
aa(lp151
I123
aI182
aF3.4e-14
aassS'BGC0000506|etnK'
p152
(dp153
S'PF02518'
p154
(lp155
(lp156
I357
aI462
aF1.8000000000000002e-13
aasS'PF00512'
p157
(lp158
(lp159
I244
aI306
aF1.2e-10
aassS'BGC0000538|nisT'
p160
(dp161
S'PF00005'
p162
(lp163
(lp164
I369
aI523
aF1.6999999999999998e-38
aassS'BGC0000497|bhtT'
p165
(dp166
S'PF00005'
p167
(lp168
(lp169
I482
aI630
aF4e-35
aasS'PF03412'
p170
(lp171
(lp172
I2
aI125
aF2.9e-27
aasS'PF00664'
p173
(lp174
(lp175
I154
aI419
aF6e-12
aassS'BGC0000495|ACR33049.1'
p176
(dp177
S'PF00528'
p178
(lp179
(lp180
I93
aI264
aF7.8e-15
aassS'BGC0000565|BAE46930.1'
p181
(dp182
S'PF13808'
p183
(lp184
(lp185
I6
aI93
aF2.3e-17
aassS'BGC0001210|bpmyx0001_45480'
p186
(dp187
S'PF00005'
p188
(lp189
(lp190
I506
aI654
aF2.7999999999999998e-36
aasS'PF03412'
p191
(lp192
(lp193
I16
aI145
aF3.5e-36
aasS'PF00664'
p194
(lp195
(lp196
I173
aI441
aF1e-32
aassS'BGC0000506|etnS'
p197
(dp198
S'PF02052'
p199
(lp200
(lp201
I5
aI36
aF1.4e-05
aassS'BGC0000588|mclA'
p202
(dp203
S'PF13437'
p204
(lp205
(lp206
I249
aI346
aF8.5e-14
aassS'BGC0000588|mclB'
p207
(dp208
S'PF00005'
p209
(lp210
(lp211
I511
aI658
aF5.400000000000001e-32
aasS'PF00664'
p212
(lp213
(lp214
I179
aI444
aF3.7999999999999997e-47
aasS'PF03412'
p215
(lp216
(lp217
I21
aI149
aF2e-39
aassS'BGC0000588|mclC'
p218
(dp219
S'PF17508'
p220
(lp221
(lp222
I1
aI104
aF1.6e-50
aassS'BGC0000538|nisC'
p223
(dp224
S'PF05147'
p225
(lp226
(lp227
I35
aI406
aF1.2e-78
aassS'BGC0000538|nisB'
p228
(dp229
S'PF14028'
p230
(lp231
(lp232
I737
aI885
aF7.1e-15
aasS'PF04738'
p233
(lp234
(lp235
I39
aI664
aF1.9e-84
aassS'BGC0000614|ACN52302.1'
p236
(dp237
S'PF04738'
p238
(lp239
(lp240
I695
aI810
aF9.8e-08
aa(lp241
I128
aI383
aF3.8999999999999997e-07
aassS'BGC0001145|H340_11740'
p242
(dp243
S'PF00881'
p244
(lp245
(lp246
I549
aI629
aF1.3e-06
aa(lp247
I224
aI359
aF8.9e-06
aassS'BGC0000536|niqT'
p248
(dp249
S'PF00005'
p250
(lp251
(lp252
I369
aI523
aF4e-38
aassS'BGC0000615|tpa9'
p253
(dp254
S'PF00177'
p255
(lp256
(lp257
I1
aI149
aF7.1e-62
aassS'BGC0000503|cinM'
p258
(dp259
S'PF13575'
p260
(lp261
(lp262
I247
aI625
aF5.4e-74
aasS'PF05147'
p263
(lp264
(lp265
I729
aI1079
aF1.1999999999999999e-76
aassS'BGC0000503|cinK'
p266
(dp267
S'PF07730'
p268
(lp269
(lp270
I139
aI204
aF3.3e-16
aassS'BGC0000503|cinH'
p271
(dp272
S'PF01061'
p273
(lp274
(lp275
I28
aI235
aF1.7e-31
aassS'BGC0000613|tpdB'
p276
(dp277
S'PF04738'
p278
(lp279
(lp280
I159
aI806
aF2.8999999999999998e-36
aassS'BGC0000599|AED99781.1'
p281
(dp282
S'PF00005'
p283
(lp284
(lp285
I19
aI160
aF4e-25
aassS'BGC0001289|penB'
p286
(dp287
S'PF14028'
p288
(lp289
(lp290
I765
aI1029
aF3.4e-37
aasS'PF04738'
p291
(lp292
(lp293
I35
aI686
aF2.2000000000000004e-183
aassS'BGC0001289|penC'
p294
(dp295
S'PF05147'
p296
(lp297
(lp298
I61
aI452
aF1.3e-65
aassS'BGC0001289|penD'
p299
(dp300
S'PF00920'
p301
(lp302
(lp303
I36
aI556
aF2.8e-227
aassS'BGC0000611|sioS'
p304
(dp305
S'PF04738'
p306
(lp307
(lp308
I172
aI814
aF2.2e-24
aassS'BGC0000503|cinZ'
p309
(dp310
S'PF01205'
p311
(lp312
(lp313
I20
aI124
aF3.7e-30
aasS'PF09186'
p314
(lp315
(lp316
I140
aI194
aF4.2e-12
aassS'BGC0000503|cinX'
p317
(dp318
S'PF07862'
p319
(lp320
(lp321
I1
aI48
aF6.7e-05
aassS'BGC0000527|mrsG'
p322
(dp323
S'PF12730'
p324
(lp325
(lp326
I4
aI188
aF4.9e-21
aassS'BGC0000523|tnp1516delN'
p327
(dp328
S'PF01610'
p329
(lp330
(lp331
I7
aI256
aF6.3e-53
aassS'BGC0000609|noc1'
p332
(dp333
S'PF03860'
p334
(lp335
(lp336
I104
aI122
aF2.7000000000000002e-05
aassS'BGC0000503|cinT'
p337
(dp338
S'PF00005'
p339
(lp340
(lp341
I3
aI144
aF7.500000000000001e-31
aassS'BGC0001289|penT'
p342
(dp343
S'PF00005'
p344
(lp345
(lp346
I384
aI537
aF2.6e-36
aasS'PF00664'
p347
(lp348
(lp349
I40
aI310
aF5.7e-08
aassS'BGC0000503|cinR'
p350
(dp351
S'PF00196'
p352
(lp353
(lp354
I154
aI208
aF1.2e-16
aasS'PF00072'
p355
(lp356
(lp357
I5
aI116
aF1.6000000000000001e-27
aassS'BGC0000550|AFB74482.1'
p358
(dp359
S'PF13575'
p360
(lp361
(lp362
I92
aI299
aF2.2e-40
aassS'BGC0000560|subT'
p363
(dp364
S'PF00005'
p365
(lp366
(lp367
I353
aI502
aF7e-36
aasS'PF00664'
p368
(lp369
(lp370
I21
aI288
aF2e-44
aassS'BGC0000579|SSEG_05180'
p371
(dp372
S'PF13462'
p373
(lp374
(lp375
I88
aI269
aF3.5e-17
aassS'BGC0000607|AIU53937.1'
p376
(dp377
S'PF13614'
p378
(lp379
(lp380
I1
aI181
aF7.900000000000001e-42
aassS'BGC0000488|cfg02'
p381
(dp382
S'PF04647'
p383
(lp384
(lp385
I7
aI175
aF2.8e-33
aassS'BGC0000552|smbG'
p386
(dp387
S'PF00005'
p388
(lp389
(lp390
I482
aI630
aF4.2e-35
aasS'PF03412'
p391
(lp392
(lp393
I2
aI125
aF1.3e-27
aasS'PF00664'
p394
(lp395
(lp396
I154
aI417
aF4.3e-13
aassS'BGC0000628|acsA-1'
p397
(dp398
S'PF00501'
p399
(lp400
(lp401
I19
aI387
aF6.5e-41
aassS'BGC0000599|AED99785.1'
p402
(dp403
S'PF13186'
p404
(lp405
(lp406
I331
aI386
aF3.0000000000000004e-05
aasS'PF04055'
p407
(lp408
(lp409
I106
aI270
aF2.7000000000000002e-12
aassS'BGC0000552|smbB'
p410
(dp411
S'PF14867'
p412
(lp413
(lp414
I39
aI60
aF9e-13
aassS'BGC0000607|AIU53931.1'
p415
(dp416
S'PF01695'
p417
(lp418
(lp419
I57
aI231
aF8.5e-54
aassS'BGC0000616|RBAM_029230'
p420
(dp421
S'PF09221'
p422
(lp423
(lp424
I50
aI112
aF2.6e-20
aassS'BGC0000531|mutT'
p425
(dp426
S'PF00664'
p427
(lp428
(lp429
I18
aI163
aF4.0999999999999994e-07
aassS'BGC0001155|pbtG1'
p430
(dp431
S'PF02624'
p432
(lp433
(lp434
I227
aI562
aF2.9e-80
aassS'BGC0000491|gaaE'
p435
(dp436
S'PF13346'
p437
(lp438
(lp439
I3
aI208
aF2e-17
aassS'BGC0000491|gaaA'
p440
(dp441
S'PF12173'
p442
(lp443
(lp444
I1
aI91
aF3.1e-50
aassS'BGC0000497|bhtM1'
p445
(dp446
S'PF13575'
p447
(lp448
(lp449
I124
aI458
aF4.0999999999999996e-60
aasS'PF05147'
p450
(lp451
(lp452
I581
aI924
aF5.8e-62
aassS'BGC0000544|pspF'
p453
(dp454
S'PF00005'
p455
(lp456
(lp457
I32
aI169
aF2.9e-26
aassS'BGC0000544|pspE'
p458
(dp459
S'PF12730'
p460
(lp461
(lp462
I27
aI179
aF5.699999999999999e-07
aassS'BGC0000497|bhtM2'
p463
(dp464
S'PF13575'
p465
(lp466
(lp467
I110
aI463
aF9.1e-46
aasS'PF05147'
p468
(lp469
(lp470
I578
aI861
aF9.5e-14
aassS'BGC0000544|pspC'
p471
(dp472
S'PF05147'
p473
(lp474
(lp475
I50
aI445
aF1.9e-51
aassS'BGC0000544|pspB'
p476
(dp477
S'PF14028'
p478
(lp479
(lp480
I784
aI1052
aF4e-33
aasS'PF04738'
p481
(lp482
(lp483
I51
aI717
aF3.6e-175
aassS'BGC0000544|pspA'
p484
(dp485
S'PF02052'
p486
(lp487
(lp488
I13
aI56
aF1.8999999999999998e-06
aassS'BGC0001388|gaeI'
p489
(dp490
S'PF17608'
p491
(lp492
(lp493
I3
aI88
aF1.8e-11
aassS'BGC0000470|bstF'
p494
(dp495
S'PF04055'
p496
(lp497
(lp498
I274
aI433
aF2.8e-08
aassS'BGC0000594|ACC54546.1'
p499
(dp500
S'PF08241'
p501
(lp502
(lp503
I64
aI156
aF8e-20
aassS'BGC0000582|ADR72965.1'
p504
(dp505
S'PF02441'
p506
(lp507
(lp508
I12
aI143
aF1.3e-08
aassS'BGC0000611|sioQ'
p509
(dp510
S'PF00501'
p511
(lp512
(lp513
I107
aI350
aF4.6e-16
aassS'BGC0000596|SSPG_05091'
p514
(dp515
S'PF07158'
p516
(lp517
(lp518
I1
aI149
aF3.8e-68
aassS'BGC0000596|SSPG_05090'
p519
(dp520
S'PF13193'
p521
(lp522
(lp523
I400
aI476
aF1.4e-18
aasS'PF00501'
p524
(lp525
(lp526
I16
aI390
aF1.5e-79
aassS'BGC0000544|pspU'
p527
(dp528
S'PF01061'
p529
(lp530
(lp531
I24
aI232
aF5.6e-30
aassS'BGC0000544|pspT'
p532
(dp533
S'PF00005'
p534
(lp535
(lp536
I29
aI172
aF1.1000000000000003e-30
aassS'BGC0000596|SSPG_05095'
p537
(dp538
S'PF08450'
p539
(lp540
(lp541
I18
aI256
aF7.4e-81
aassS'BGC0000596|SSPG_05094'
p542
(dp543
S'PF01614'
p544
(lp545
(lp546
I124
aI248
aF1.1999999999999999e-35
aasS'PF09339'
p547
(lp548
(lp549
I7
aI54
aF1.3000000000000001e-12
aassS'BGC0000544|pspQ'
p550
(dp551
S'PF10709'
p552
(lp553
(lp554
I58
aI134
aF7.3e-08
aassS'BGC0000477|truA'
p555
(dp556
S'PF00082'
p557
(lp558
(lp559
I16
aI256
aF9e-35
aassS'BGC0000534|mukT'
p560
(dp561
S'PF00005'
p562
(lp563
(lp564
I479
aI615
aF2.4e-20
aasS'PF03412'
p565
(lp566
(lp567
I2
aI132
aF6.200000000000001e-37
aasS'PF00664'
p568
(lp569
(lp570
I191
aI420
aF8.5e-16
aassS'BGC0000617|coaD'
p571
(dp572
S'PF00005'
p573
(lp574
(lp575
I502
aI654
aF8.500000000000001e-30
aasS'PF00664'
p576
(lp577
(lp578
I171
aI440
aF4.700000000000001e-58
aasS'PF03412'
p579
(lp580
(lp581
I8
aI143
aF7.8e-45
aassS'BGC0000569|ptnL'
p582
(dp583
S'PF13847'
p584
(lp585
(lp586
I61
aI183
aF7.6e-15
aassS'BGC0000544|pspZ'
p587
(dp588
S'PF00005'
p589
(lp590
(lp591
I21
aI164
aF7.1e-31
aassS'BGC0000582|ADR72967.1'
p592
(dp593
S'PF00005'
p594
(lp595
(lp596
I25
aI164
aF5.700000000000001e-22
aassS'BGC0000530|SMU76_03180'
p597
(dp598
S'PF02441'
p599
(lp600
(lp601
I8
aI180
aF3.1e-34
aassS'BGC0000523|lasY'
p602
(dp603
S'PF00005'
p604
(lp605
(lp606
I21
aI157
aF1.8999999999999998e-28
aasS'PF13732'
p607
(lp608
(lp609
I211
aI289
aF1e-09
aassS'BGC0000620|BAM66976.1'
p610
(dp611
S'PF03703'
p612
(lp613
(lp614
I66
aI142
aF6.5e-09
aassS'BGC0001291|BAT21397.1'
p615
(dp616
S'PF14501'
p617
(lp618
(lp619
I335
aI434
aF5.900000000000001e-17
aassS'BGC0000506|yvaQ'
p620
(dp621
S'PF00672'
p622
(lp623
(lp624
I208
aI258
aF7.5e-11
aasS'PF12729'
p625
(lp626
(lp627
I3
aI181
aF1.3999999999999999e-36
aasS'PF00015'
p628
(lp629
(lp630
I357
aI519
aF1.1000000000000002e-43
aassS'BGC0000509|elxC'
p631
(dp632
S'PF05147'
p633
(lp634
(lp635
I33
aI387
aF2.3e-58
aassS'BGC0000523|lasP'
p636
(dp637
S'PF00082'
p638
(lp639
(lp640
I56
aI249
aF2.8999999999999998e-12
aassS'BGC0000472|ADA00397.1'
p641
(dp642
S'PF13083'
p643
(lp644
(lp645
I13
aI85
aF1e-15
aassS'BGC0000469|AFV25475.1'
p646
(dp647
S'PF01725'
p648
(lp649
(lp650
I4
aI192
aF5.900000000000001e-56
aassS'BGC0000523|lasT'
p651
(dp652
S'PF00005'
p653
(lp654
(lp655
I341
aI472
aF2.3e-17
aasS'PF00664'
p656
(lp657
(lp658
I13
aI280
aF6.1e-22
aassS'BGC0000625|tvaF'
p659
(dp660
S'PF02441'
p661
(lp662
(lp663
I16
aI185
aF1.1000000000000003e-30
aassS'BGC0000523|lasN'
p664
(dp665
S'PF03358'
p666
(lp667
(lp668
I1
aI134
aF3.4999999999999997e-16
aassS'BGC0000523|lasM'
p669
(dp670
S'PF13575'
p671
(lp672
(lp673
I102
aI467
aF2.5000000000000002e-58
aasS'PF05147'
p674
(lp675
(lp676
I640
aI914
aF2.3e-17
aassS'BGC0001388|gaeA'
p677
(dp678
S'PF10439'
p679
(lp680
(lp681
I1
aI73
aF2.5e-10
aassS'BGC0000559|AAB91591.1'
p682
(dp683
S'PF13560'
p684
(lp685
(lp686
I4
aI62
aF4.2000000000000004e-15
aassS'BGC0001157|SCAB_56621'
p687
(dp688
S'PF00067'
p689
(lp690
(lp691
I287
aI344
aF6.400000000000001e-09
aassS'BGC0000605|getB'
p692
(dp693
S'PF00005'
p694
(lp695
(lp696
I26
aI169
aF9.9e-27
aassS'BGC0000611|sioL'
p697
(dp698
S'PF14028'
p699
(lp700
(lp701
I20
aI347
aF2.8e-23
aassS'BGC0000578|SSGG_RS13910'
p702
(dp703
S'PF00733'
p704
(lp705
(lp706
I44
aI298
aF9.9e-22
aassS'BGC0001306|AFLA_041390'
p707
(dp708
S'PF11807'
p709
(lp710
(lp711
I53
aI278
aF5.4e-60
aassS'BGC0000595|SCO2439'
p712
(dp713
S'PF08450'
p714
(lp715
(lp716
I18
aI256
aF1.7e-80
aassS'BGC0000595|SCO2438'
p717
(dp718
S'PF13450'
p719
(lp720
(lp721
I7
aI35
aF8.6e-05
aassS'BGC0001174|CU7111_1586'
p722
(dp723
S'PF00881'
p724
(lp725
(lp726
I92
aI258
aF9.5e-15
aassS'BGC0000565|BAE46926.1'
p727
(dp728
S'PF01609'
p729
(lp730
(lp731
I3
aI137
aF7.3e-19
aassS'BGC0001174|CU7111_1582'
p732
(dp733
S'PF13649'
p734
(lp735
(lp736
I64
aI142
aF9.800000000000002e-09
aassS'BGC0001145|H340_11780'
p737
(dp738
S'PF00196'
p739
(lp740
(lp741
I873
aI926
aF1.1000000000000002e-12
aasS'PF13191'
p742
(lp743
(lp744
I8
aI150
aF3.7999999999999996e-14
aassS'BGC0001173|BAT_RS01140'
p745
(dp746
S'PF02517'
p747
(lp748
(lp749
I114
aI198
aF1.5e-10
aassS'BGC0000495|ACR33051.1'
p750
(dp751
S'PF01547'
p752
(lp753
(lp754
I78
aI338
aF4.8e-14
aassS'BGC0000495|garR1'
p755
(dp756
S'PF00196'
p757
(lp758
(lp759
I163
aI218
aF5.599999999999999e-19
aasS'PF00072'
p760
(lp761
(lp762
I14
aI124
aF1.5e-12
aassS'BGC0000488|cirI'
p763
(dp764
S'PF02687'
p765
(lp766
(lp767
I328
aI415
aF2.7e-11
aasS'PF12704'
p768
(lp769
(lp770
I21
aI263
aF1.1999999999999998e-29
aassS'BGC0000468|bmbJ'
p771
(dp772
S'PF04055'
p773
(lp774
(lp775
I304
aI461
aF6.000000000000001e-08
aassS'BGC0000610|nos10'
p776
(dp777
S'PF00687'
p778
(lp779
(lp780
I31
aI220
aF4.700000000000001e-53
aassS'BGC0000627|AFLA_095040'
p781
(dp782
S'PF00266'
p783
(lp784
(lp785
I57
aI427
aF2.1e-47
aassS'BGC0000611|sioF'
p786
(dp787
S'PF04072'
p788
(lp789
(lp790
I24
aI193
aF1.1e-47
aassS'BGC0001157|SCAB_56691'
p791
(dp792
S'PF02310'
p793
(lp794
(lp795
I118
aI208
aF1e-06
aassS'BGC0001145|H340_11735'
p796
(dp797
S'PF02624'
p798
(lp799
(lp800
I414
aI545
aF2e-06
aassS'BGC0000502|cerP'
p801
(dp802
S'PF00082'
p803
(lp804
(lp805
I172
aI458
aF2.0999999999999998e-40
aassS'BGC0000582|ADR72961.1'
p806
(dp807
S'PF13191'
p808
(lp809
(lp810
I234
aI360
aF1.8000000000000002e-08
aasS'PF13424'
p811
(lp812
(lp813
I673
aI739
aF7.000000000000001e-10
aa(lp814
I749
aI818
aF4.5999999999999995e-08
aassS'BGC0000502|cerR'
p815
(dp816
S'PF00196'
p817
(lp818
(lp819
I3
aI55
aF2.3e-12
aassS'BGC0000502|cerT'
p820
(dp821
S'PF00005'
p822
(lp823
(lp824
I490
aI638
aF2.7e-38
aasS'PF03412'
p825
(lp826
(lp827
I4
aI132
aF1.8999999999999998e-39
aasS'PF00664'
p828
(lp829
(lp830
I158
aI426
aF3.2000000000000005e-33
aassS'BGC0000611|sioD'
p831
(dp832
S'PF07366'
p833
(lp834
(lp835
I9
aI130
aF1e-30
aassS'BGC0001148|pgm11'
p836
(dp837
S'PF02797'
p838
(lp839
(lp840
I235
aI350
aF1.6e-14
aasS'PF00195'
p841
(lp842
(lp843
I77
aI198
aF3e-14
aassS'BGC0000588|stbB'
p844
(dp845
S'PF10784'
p846
(lp847
(lp848
I10
aI81
aF5.3e-27
aassS'BGC0001148|pgm13'
p849
(dp850
S'PF13515'
p851
(lp852
(lp853
I422
aI541
aF7.1e-15
aassS'BGC0000479|AED99430.1'
p854
(dp855
S'PF01797'
p856
(lp857
(lp858
I10
aI126
aF1.6000000000000002e-23
aassS'BGC0001148|pgm15'
p859
(dp860
S'PF00126'
p861
(lp862
(lp863
I5
aI64
aF2.2000000000000003e-17
aasS'PF03466'
p864
(lp865
(lp866
I118
aI288
aF3.5e-18
aassS'BGC0001148|pgm14'
p867
(dp868
S'PF02868'
p869
(lp870
(lp871
I337
aI501
aF5.7e-26
aasS'PF04389'
p872
(lp873
(lp874
I689
aI894
aF8.699999999999998e-44
aasS'PF01447'
p875
(lp876
(lp877
I192
aI327
aF1.6000000000000002e-22
aassS'BGC0001148|pgm17'
p878
(dp879
S'PF03831'
p880
(lp881
(lp882
I49
aI118
aF1.1999999999999998e-29
aasS'PF08274'
p883
(lp884
(lp885
I6
aI34
aF5.1e-12
aassS'BGC0001148|pgm19'
p886
(dp887
S'PF00668'
p888
(lp889
(lp890
I36
aI436
aF3.6e-44
aassS'BGC0001148|pgm18'
p891
(dp892
S'PF05977'
p893
(lp894
(lp895
I5
aI374
aF1.6999999999999996e-21
aassS'BGC0000488|cirH'
p896
(dp897
S'PF00005'
p898
(lp899
(lp900
I29
aI177
aF2.6000000000000003e-33
aassS'BGC0000502|cerE'
p901
(dp902
S'PF12698'
p903
(lp904
(lp905
I22
aI383
aF6.299999999999999e-39
aassS'BGC0000502|cerF'
p906
(dp907
S'PF00005'
p908
(lp909
(lp910
I19
aI157
aF2.2999999999999998e-26
aasS'PF13732'
p911
(lp912
(lp913
I211
aI291
aF1.6000000000000002e-10
aassS'BGC0000612|BC_5083'
p914
(dp915
S'PF14028'
p916
(lp917
(lp918
I8
aI313
aF3.1e-85
aassS'BGC0001167|pirA'
p919
(dp920
S'PF00082'
p921
(lp922
(lp923
I18
aI258
aF1.2e-34
aassS'BGC0000511|eriR'
p924
(dp925
S'PF00072'
p926
(lp927
(lp928
I4
aI112
aF2.8999999999999996e-21
aasS'PF00486'
p929
(lp930
(lp931
I146
aI218
aF3.3e-18
aassS'BGC0000509|AFN69429.1'
p932
(dp933
S'PF02796'
p934
(lp935
(lp936
I122
aI174
aF8.7e-18
aasS'PF00239'
p937
(lp938
(lp939
I2
aI74
aF1e-19
aassS'BGC0000511|eriT'
p940
(dp941
S'PF00005'
p942
(lp943
(lp944
I370
aI524
aF2.2000000000000004e-33
aassS'BGC0000614|ACN52298.1'
p945
(dp946
S'PF02624'
p947
(lp948
(lp949
I275
aI636
aF6.6e-63
aassS'BGC0000578|SSGG_RS13900'
p950
(dp951
S'PF13471'
p952
(lp953
(lp954
I21
aI132
aF6.2e-23
aassS'BGC0001289|ALR96375.1'
p955
(dp956
S'PF07883'
p957
(lp958
(lp959
I29
aI85
aF4e-15
aassS'BGC0000571|RBRH_03777'
p960
(dp961
S'PF00733'
p962
(lp963
(lp964
I231
aI574
aF3e-14
aassS'BGC0000612|BC_5081'
p965
(dp966
S'PF00881'
p967
(lp968
(lp969
I372
aI500
aF1.8999999999999998e-08
aassS'BGC0000625|BAN83931.1'
p970
(dp971
S'PF00931'
p972
(lp973
(lp974
I393
aI581
aF7.400000000000001e-09
aasS'PF13374'
p975
(lp976
(lp977
I843
aI873
aF0.0028
aasS'PF03704'
p978
(lp979
(lp980
I109
aI256
aF3.6e-42
aasS'PF00486'
p981
(lp982
(lp983
I34
aI94
aF1.1000000000000001e-09
aassS'BGC0000495|ACR33045.1'
p984
(dp985
S'PF13407'
p986
(lp987
(lp988
I69
aI323
aF1e-46
aassS'BGC0000608|ADH93698.1'
p989
(dp990
S'PF06968'
p991
(lp992
(lp993
I276
aI378
aF9.7e-09
aassS'BGC0000566|sagH'
p994
(dp995
S'PF12698'
p996
(lp997
(lp998
I21
aI366
aF1.6e-26
aassS'BGC0000511|eriB'
p999
(dp1000
S'PF14028'
p1001
(lp1002
(lp1003
I756
aI1013
aF2e-30
aasS'PF04738'
p1004
(lp1005
(lp1006
I40
aI682
aF1.4e-123
aassS'BGC0000504|clyLl'
p1007
(dp1008
S'PF16934'
p1009
(lp1010
(lp1011
I8
aI66
aF3.2000000000000003e-23
aassS'BGC0000511|eriE'
p1012
(dp1013
S'PF12730'
p1014
(lp1015
(lp1016
I5
aI166
aF6.3e-08
aassS'BGC0000511|eriF'
p1017
(dp1018
S'PF00005'
p1019
(lp1020
(lp1021
I31
aI167
aF1.1000000000000001e-32
aassS'BGC0001222|aciT'
p1022
(dp1023
S'PF00005'
p1024
(lp1025
(lp1026
I21
aI149
aF9.6e-22
aassS'BGC0000511|AAL15576.1'
p1027
(dp1028
S'PF01638'
p1029
(lp1030
(lp1031
I16
aI104
aF1.5e-34
aassS'BGC0000610|nos3'
p1032
(dp1033
S'PF00164'
p1034
(lp1035
(lp1036
I12
aI123
aF7.799999999999999e-44
aassS'BGC0000511|eriK'
p1037
(dp1038
S'PF02518'
p1039
(lp1040
(lp1041
I357
aI461
aF4.5e-14
aasS'PF00512'
p1042
(lp1043
(lp1044
I244
aI307
aF2.3999999999999998e-11
aassS'BGC0001388|gaeR'
p1045
(dp1046
S'PF04397'
p1047
(lp1048
(lp1049
I168
aI256
aF5.3e-13
aasS'PF00072'
p1050
(lp1051
(lp1052
I5
aI135
aF2.1e-09
aassS'BGC0000495|ACR33047.1'
p1053
(dp1054
S'PF00005'
p1055
(lp1056
(lp1057
I25
aI174
aF8e-30
aassS'BGC0000572|BTJ_876'
p1058
(dp1059
S'PF00005'
p1060
(lp1061
(lp1062
I364
aI510
aF6.099999999999999e-23
aassS'BGC0000596|SSPG_05089'
p1063
(dp1064
S'PF01039'
p1065
(lp1066
(lp1067
I50
aI156
aF2.3e-13
aassS'BGC0000561|BAJ10701.1'
p1068
(dp1069
S'PF11799'
p1070
(lp1071
(lp1072
I130
aI239
aF2.2999999999999997e-14
aasS'PF11798'
p1073
(lp1074
(lp1075
I58
aI90
aF1.5000000000000002e-08
aassS'BGC0000611|sioJ'
p1076
(dp1077
S'PF04738'
p1078
(lp1079
(lp1080
I146
aI788
aF5.0999999999999995e-24
aassS'BGC0000604|tpdM'
p1081
(dp1082
S'PF00891'
p1083
(lp1084
(lp1085
I106
aI313
aF8.7e-43
aassS'BGC0000614|ACN52296.1'
p1086
(dp1087
S'PF00881'
p1088
(lp1089
(lp1090
I142
aI275
aF9e-06
aassS'BGC0000519|labT2'
p1091
(dp1092
S'PF00005'
p1093
(lp1094
(lp1095
I351
aI496
aF1.7e-24
aassS'BGC0000624|ABQ84450.1'
p1096
(dp1097
S'PF13437'
p1098
(lp1099
(lp1100
I245
aI357
aF1.5000000000000001e-18
aassS'BGC0000595|SCO2442'
p1101
(dp1102
S'PF00392'
p1103
(lp1104
(lp1105
I13
aI75
aF1.6000000000000002e-19
aasS'PF07729'
p1106
(lp1107
(lp1108
I98
aI219
aF5.6e-26
aassS'BGC0000547|salivB0667'
p1109
(dp1110
S'PF14690'
p1111
(lp1112
(lp1113
I41
aI85
aF3.2e-11
aasS'PF13542'
p1114
(lp1115
(lp1116
I92
aI141
aF3.7999999999999996e-14
aasS'PF01610'
p1117
(lp1118
(lp1119
I157
aI271
aF6.7e-26
aassS'BGC0000595|SCO2440'
p1120
(dp1121
S'PF01614'
p1122
(lp1123
(lp1124
I124
aI248
aF1.1999999999999999e-35
aasS'PF09339'
p1125
(lp1126
(lp1127
I7
aI54
aF1.3000000000000001e-12
aassS'BGC0000506|etnT'
p1128
(dp1129
S'PF00005'
p1130
(lp1131
(lp1132
I370
aI523
aF8.500000000000001e-33
aassS'BGC0000595|SCO2446'
p1133
(dp1134
S'PF00082'
p1135
(lp1136
(lp1137
I218
aI475
aF5.900000000000001e-56
aassS'BGC0000468|bmbF'
p1138
(dp1139
S'PF04055'
p1140
(lp1141
(lp1142
I274
aI432
aF9.8e-08
aassS'BGC0000595|SCO2444'
p1143
(dp1144
S'PF13193'
p1145
(lp1146
(lp1147
I400
aI476
aF1.4e-18
aasS'PF00501'
p1148
(lp1149
(lp1150
I16
aI390
aF1.5e-79
aassS'BGC0000595|SCO2445'
p1151
(dp1152
S'PF01039'
p1153
(lp1154
(lp1155
I50
aI200
aF3.9e-14
aa(lp1156
I288
aI431
aF4.2000000000000005e-10
aassS'BGC0000615|tpa1'
p1157
(dp1158
S'PF03946'
p1159
(lp1160
(lp1161
I11
aI68
aF4.9000000000000005e-27
aasS'PF00298'
p1162
(lp1163
(lp1164
I73
aI141
aF2.4999999999999998e-23
aassS'BGC0000595|SCO2448'
p1165
(dp1166
S'PF13365'
p1167
(lp1168
(lp1169
I17
aI166
aF1.6e-11
aassS'BGC0000615|tpa3'
p1170
(dp1171
S'PF00466'
p1172
(lp1173
(lp1174
I1
aI99
aF3.9e-27
aassS'BGC0000615|tpa4'
p1175
(dp1176
S'PF00542'
p1177
(lp1178
(lp1179
I63
aI129
aF1.1999999999999999e-28
aasS'PF16320'
p1180
(lp1181
(lp1182
I6
aI52
aF2e-18
aassS'BGC0000615|tpa5'
p1183
(dp1184
S'PF04560'
p1185
(lp1186
(lp1187
I1043
aI1117
aF5.3e-27
aasS'PF04561'
p1188
(lp1189
(lp1190
I164
aI359
aF2.7000000000000002e-27
aasS'PF00562'
p1191
(lp1192
(lp1193
I623
aI1041
aF1.6000000000000002e-156
aasS'PF10385'
p1194
(lp1195
(lp1196
I496
aI562
aF9.300000000000001e-26
aasS'PF04565'
p1197
(lp1198
(lp1199
I418
aI486
aF3.4e-29
aassS'BGC0000615|tpa6'
p1200
(dp1201
S'PF05000'
p1202
(lp1203
(lp1204
I752
aI822
aF3e-11
aasS'PF04998'
p1205
(lp1206
(lp1207
I830
aI1192
aF1.5e-62
aasS'PF04997'
p1208
(lp1209
(lp1210
I7
aI417
aF2.6e-82
aasS'PF04983'
p1211
(lp1212
(lp1213
I564
aI723
aF6.599999999999999e-24
aasS'PF00623'
p1214
(lp1215
(lp1216
I467
aI560
aF4.9e-28
aa(lp1217
I419
aI462
aF2.4e-08
aassS'BGC0000506|etnR'
p1218
(dp1219
S'PF00072'
p1220
(lp1221
(lp1222
I4
aI112
aF4e-22
aasS'PF00486'
p1223
(lp1224
(lp1225
I146
aI218
aF4.500000000000001e-18
aassS'BGC0000615|tpaH'
p1226
(dp1227
S'PF02624'
p1228
(lp1229
(lp1230
I237
aI577
aF9.300000000000001e-70
aassS'BGC0000615|tpaI'
p1231
(dp1232
S'PF00588'
p1233
(lp1234
(lp1235
I118
aI257
aF8.6e-27
aasS'PF04705'
p1236
(lp1237
(lp1238
I5
aI114
aF2e-53
aassS'BGC0000615|tpaJ'
p1239
(dp1240
S'PF00465'
p1241
(lp1242
(lp1243
I29
aI318
aF8.7e-35
aassS'BGC0000615|tpaK'
p1244
(dp1245
S'PF04738'
p1246
(lp1247
(lp1248
I174
aI835
aF1.2e-24
aassS'BGC0000615|tpaL'
p1249
(dp1250
S'PF14028'
p1251
(lp1252
(lp1253
I6
aI287
aF2e-50
aassS'BGC0000624|ABQ84442.1'
p1254
(dp1255
S'PF10439'
p1256
(lp1257
(lp1258
I2
aI61
aF5.4e-16
aassS'BGC0000609|nocO'
p1259
(dp1260
S'PF14028'
p1261
(lp1262
(lp1263
I111
aI294
aF1.6000000000000002e-10
aassS'BGC0000604|tpdO'
p1264
(dp1265
S'PF02624'
p1266
(lp1267
(lp1268
I251
aI588
aF1.2e-79
aassS'BGC0000563|venH'
p1269
(dp1270
S'PF01061'
p1271
(lp1272
(lp1273
I45
aI252
aF5e-27
aassS'BGC0000615|tpaC'
p1274
(dp1275
S'PF02624'
p1276
(lp1277
(lp1278
I75
aI406
aF1.3000000000000002e-62
aassS'BGC0001171|LMOf2365_1113'
p1279
(dp1280
S'PF00005'
p1281
(lp1282
(lp1283
I26
aI148
aF4.599999999999999e-21
aassS'BGC0000563|venL'
p1284
(dp1285
S'PF05147'
p1286
(lp1287
(lp1288
I590
aI934
aF2.7000000000000003e-42
aasS'PF00069'
p1289
(lp1290
(lp1291
I242
aI436
aF1e-15
aassS'BGC0001148|pgm5'
p1292
(dp1293
S'PF00005'
p1294
(lp1295
(lp1296
I435
aI513
aF2.2e-06
aasS'PF00664'
p1297
(lp1298
(lp1299
I42
aI307
aF6.5e-19
aassS'BGC0001148|pgm4'
p1300
(dp1301
S'PF16864'
p1302
(lp1303
(lp1304
I63
aI134
aF1.3e-09
aasS'PF00891'
p1305
(lp1306
(lp1307
I152
aI368
aF2.3e-31
aassS'BGC0001148|pgm7'
p1308
(dp1309
S'PF00067'
p1310
(lp1311
(lp1312
I313
aI411
aF1.1000000000000002e-19
aassS'BGC0001148|pgm6'
p1313
(dp1314
S'PF00005'
p1315
(lp1316
(lp1317
I380
aI528
aF4.5e-23
aasS'PF00664'
p1318
(lp1319
(lp1320
I34
aI300
aF2.1e-24
aassS'BGC0001148|pgm3'
p1321
(dp1322
S'PF02310'
p1323
(lp1324
(lp1325
I153
aI223
aF2.8e-08
aasS'PF04055'
p1326
(lp1327
(lp1328
I292
aI448
aF9.2e-12
aassS'BGC0000494|ABG48501.1'
p1329
(dp1330
S'PF01808'
p1331
(lp1332
(lp1333
I5
aI320
aF5.999999999999999e-116
aassS'BGC0001148|pgm9'
p1334
(dp1335
S'PF00378'
p1336
(lp1337
(lp1338
I286
aI389
aF5.1e-14
aassS'BGC0001148|pgm8'
p1339
(dp1340
S'PF00155'
p1341
(lp1342
(lp1343
I85
aI426
aF2.8999999999999996e-21
aassS'BGC0000609|nocK'
p1344
(dp1345
S'PF12697'
p1346
(lp1347
(lp1348
I13
aI227
aF8.1e-12
aassS'BGC0000511|eriC'
p1349
(dp1350
S'PF05147'
p1351
(lp1352
(lp1353
I48
aI440
aF9.3e-87
aassS'BGC0000545|rumG'
p1354
(dp1355
S'PF12730'
p1356
(lp1357
(lp1358
I6
aI187
aF1.8e-33
aassS'BGC0000545|rumF'
p1359
(dp1360
S'PF00005'
p1361
(lp1362
(lp1363
I21
aI160
aF6.1e-30
aassS'BGC0000545|rumE'
p1364
(dp1365
S'PF12730'
p1366
(lp1367
(lp1368
I4
aI176
aF3.1000000000000005e-09
aassS'BGC0000545|rumK'
p1369
(dp1370
S'PF02518'
p1371
(lp1372
(lp1373
I343
aI451
aF7.9e-19
aasS'PF00512'
p1374
(lp1375
(lp1376
I229
aI292
aF2.8e-09
aassS'BGC0000625|BAN83915.1'
p1377
(dp1378
S'PF00561'
p1379
(lp1380
(lp1381
I113
aI501
aF1e-37
aassS'BGC0000609|nocI'
p1382
(dp1383
S'PF00501'
p1384
(lp1385
(lp1386
I90
aI320
aF9.2e-16
aassS'BGC0000545|rumM'
p1387
(dp1388
S'PF13575'
p1389
(lp1390
(lp1391
I92
aI450
aF5.1e-52
aasS'PF05147'
p1392
(lp1393
(lp1394
I566
aI907
aF1.3e-71
aassS'BGC0000614|ACN52292.1'
p1395
(dp1396
S'PF12697'
p1397
(lp1398
(lp1399
I4
aI212
aF7.5e-13
aassS'BGC0000545|rumR'
p1400
(dp1401
S'PF00072'
p1402
(lp1403
(lp1404
I12
aI117
aF2e-26
aasS'PF00486'
p1405
(lp1406
(lp1407
I157
aI229
aF3.899999999999999e-21
aassS'BGC0000543|pepB'
p1408
(dp1409
S'PF14028'
p1410
(lp1411
(lp1412
I717
aI957
aF7.799999999999999e-20
aasS'PF04738'
p1413
(lp1414
(lp1415
I69
aI471
aF5.2e-41
aa(lp1416
I512
aI652
aF2.8e-18
aassS'BGC0000545|rumT'
p1417
(dp1418
S'PF00005'
p1419
(lp1420
(lp1421
I476
aI614
aF3.7999999999999995e-23
aasS'PF03412'
p1422
(lp1423
(lp1424
I2
aI125
aF7.6e-32
aasS'PF00664'
p1425
(lp1426
(lp1427
I163
aI389
aF6.9e-12
aassS'BGC0000614|ACN52294.1'
p1428
(dp1429
S'PF14028'
p1430
(lp1431
(lp1432
I9
aI317
aF1e-61
aassS'BGC0000527|mrsK2'
p1433
(dp1434
S'PF02518'
p1435
(lp1436
(lp1437
I359
aI470
aF5.7e-23
aasS'PF00512'
p1438
(lp1439
(lp1440
I245
aI305
aF1.2e-09
aassS'BGC0001155|pbtM3'
p1441
(dp1442
S'PF04055'
p1443
(lp1444
(lp1445
I7
aI184
aF4.5000000000000004e-17
aassS'BGC0000627|AFLA_094960'
p1446
(dp1447
S'PF00067'
p1448
(lp1449
(lp1450
I170
aI329
aF7.3e-28
aassS'BGC0000550|AFB74478.1'
p1451
(dp1452
S'PF00072'
p1453
(lp1454
(lp1455
I12
aI121
aF1.5999999999999999e-24
aassS'BGC0000503|cinorf11'
p1456
(dp1457
S'PF09335'
p1458
(lp1459
(lp1460
I36
aI161
aF9.699999999999999e-14
aassS'BGC0001157|SCAB_56661'
p1461
(dp1462
S'PF02624'
p1463
(lp1464
(lp1465
I217
aI447
aF3.3e-32
aassS'BGC0000584|CAA11512.1'
p1466
(dp1467
S'PF02894'
p1468
(lp1469
(lp1470
I43
aI98
aF5.6e-05
aassS'BGC0001167|pirG'
p1471
(dp1472
S'PF00082'
p1473
(lp1474
(lp1475
I23
aI301
aF2.2000000000000002e-23
aassS'BGC0001170|CLOSPO_RS15790'
p1476
(dp1477
S'PF12698'
p1478
(lp1479
(lp1480
I19
aI367
aF2.7999999999999995e-34
aassS'BGC0000614|ACN52308.1'
p1481
(dp1482
S'PF07366'
p1483
(lp1484
(lp1485
I8
aI130
aF2.1e-30
aassS'BGC0000498|sdb1'
p1486
(dp1487
S'PF00085'
p1488
(lp1489
(lp1490
I69
aI159
aF2.5e-07
aassS'BGC0001170|CLOSPO_RS15795'
p1491
(dp1492
S'PF12698'
p1493
(lp1494
(lp1495
I21
aI368
aF2.4999999999999997e-36
aassS'BGC0001155|pbtM4'
p1496
(dp1497
S'PF00891'
p1498
(lp1499
(lp1500
I103
aI310
aF4.9e-40
aassS'BGC0000540|paenB'
p1501
(dp1502
S'PF14028'
p1503
(lp1504
(lp1505
I762
aI1009
aF7.9e-24
aasS'PF04738'
p1506
(lp1507
(lp1508
I50
aI685
aF3.6e-111
aassS'BGC0000469|AFV25470.1'
p1509
(dp1510
S'PF00905'
p1511
(lp1512
(lp1513
I379
aI640
aF3.4e-31
aasS'PF00912'
p1514
(lp1515
(lp1516
I106
aI277
aF5.1e-58
aassS'BGC0000502|cerA6'
p1517
(dp1518
S'PF16934'
p1519
(lp1520
(lp1521
I30
aI76
aF7.2e-15
aassS'BGC0000620|BAM66982.1'
p1522
(dp1523
S'PF09848'
p1524
(lp1525
(lp1526
I3
aI262
aF2e-23
aassS'BGC0001155|rpsG'
p1527
(dp1528
S'PF00177'
p1529
(lp1530
(lp1531
I1
aI149
aF1.4999999999999998e-60
aassS'BGC0000545|rumA3'
p1532
(dp1533
S'PF04604'
p1534
(lp1535
(lp1536
I2
aI47
aF1.7e-24
aassS'BGC0000545|rumA2'
p1537
(dp1538
S'PF04604'
p1539
(lp1540
(lp1541
I2
aI47
aF1.7e-24
aassS'BGC0000545|rumA1'
p1542
(dp1543
S'PF04604'
p1544
(lp1545
(lp1546
I2
aI47
aF1.7e-24
aassS'BGC0001155|rpsL'
p1547
(dp1548
S'PF00164'
p1549
(lp1550
(lp1551
I12
aI123
aF3.8e-42
aassS'BGC0001311|RUMFLAFD1_RS0111220'
p1552
(dp1553
S'PF12730'
p1554
(lp1555
(lp1556
I5
aI175
aF7.200000000000001e-08
aassS'BGC0000502|cerA5'
p1557
(dp1558
S'PF16934'
p1559
(lp1560
(lp1561
I30
aI76
aF7.2e-15
aassS'BGC0000525|lchA1'
p1562
(dp1563
S'PF14867'
p1564
(lp1565
(lp1566
I46
aI74
aF2.6e-19
aassS'BGC0000525|lchA2'
p1567
(dp1568
S'PF16934'
p1569
(lp1570
(lp1571
I22
aI63
aF1.4e-06
aassS'BGC0000620|BAM66980.1'
p1572
(dp1573
S'PF01719'
p1574
(lp1575
(lp1576
I58
aI191
aF2.6000000000000002e-12
aasS'PF00910'
p1577
(lp1578
(lp1579
I237
aI301
aF1.8000000000000002e-08
aassS'BGC0001155|fusA'
p1580
(dp1581
S'PF03764'
p1582
(lp1583
(lp1584
I480
aI600
aF4.9e-49
aasS'PF03144'
p1585
(lp1586
(lp1587
I325
aI392
aF1.4e-17
aasS'PF00009'
p1588
(lp1589
(lp1590
I9
aI281
aF1.3999999999999999e-67
aasS'PF14492'
p1591
(lp1592
(lp1593
I405
aI478
aF5.400000000000001e-35
aasS'PF00679'
p1594
(lp1595
(lp1596
I603
aI689
aF3.6e-30
aassS'BGC0000576|RGE_06970'
p1597
(dp1598
S'PF00733'
p1599
(lp1600
(lp1601
I245
aI590
aF4.3e-22
aassS'BGC0001291|enkB'
p1602
(dp1603
S'PF09221'
p1604
(lp1605
(lp1606
I26
aI87
aF4.6e-18
aassS'BGC0000523|tnp1519R'
p1607
(dp1608
S'PF13610'
p1609
(lp1610
(lp1611
I74
aI204
aF2.7e-40
aassS'BGC0000582|ADR72963.1'
p1612
(dp1613
S'PF12697'
p1614
(lp1615
(lp1616
I346
aI564
aF5.7e-08
aassS'BGC0000579|SSEG_05179'
p1617
(dp1618
S'PF07291'
p1619
(lp1620
(lp1621
I4
aI134
aF9.5e-14
aassS'BGC0000548|salA'
p1622
(dp1623
S'PF04604'
p1624
(lp1625
(lp1626
I1
aI48
aF3.7e-18
aassS'BGC0000579|SSEG_09675'
p1627
(dp1628
S'PF00005'
p1629
(lp1630
(lp1631
I26
aI167
aF1.8e-28
aassS'BGC0000550|AFB74480.1'
p1632
(dp1633
S'PF04604'
p1634
(lp1635
(lp1636
I1
aI48
aF1.1e-24
aassS'BGC0000530|SMU76_03165'
p1637
(dp1638
S'PF02052'
p1639
(lp1640
(lp1641
I13
aI64
aF3e-14
aassS'BGC0000617|mob_pre'
p1642
(dp1643
S'PF01076'
p1644
(lp1645
(lp1646
I1
aI192
aF2.1e-69
aassS'BGC0000579|SSEG_09673'
p1647
(dp1648
S'PF05402'
p1649
(lp1650
(lp1651
I18
aI83
aF5.5000000000000004e-09
aassS'BGC0000530|SMU76_03160'
p1652
(dp1653
S'PF02052'
p1654
(lp1655
(lp1656
I12
aI63
aF5.7e-29
aassS'BGC0000486|AAC69555.2'
p1657
(dp1658
S'PF04397'
p1659
(lp1660
(lp1661
I142
aI228
aF7.4e-15
aasS'PF00072'
p1662
(lp1663
(lp1664
I4
aI114
aF2.1000000000000002e-10
aassS'BGC0000628|HMPREF0514_11739'
p1665
(dp1666
S'PF00004'
p1667
(lp1668
(lp1669
I80
aI204
aF4.6e-27
aassS'BGC0000522|orf7z'
p1670
(dp1671
S'PF00005'
p1672
(lp1673
(lp1674
I2
aI126
aF6e-17
aassS'BGC0000517|BH0452'
p1675
(dp1676
S'PF13575'
p1677
(lp1678
(lp1679
I147
aI520
aF1.6e-116
aasS'PF05147'
p1680
(lp1681
(lp1682
I641
aI969
aF2.3e-80
aassS'BGC0000517|BH0451'
p1683
(dp1684
S'PF00005'
p1685
(lp1686
(lp1687
I497
aI646
aF3e-37
aasS'PF03412'
p1688
(lp1689
(lp1690
I12
aI139
aF3.2e-42
aasS'PF00664'
p1691
(lp1692
(lp1693
I165
aI433
aF8.6e-31
aassS'BGC0000522|orf4z'
p1694
(dp1695
S'PF03703'
p1696
(lp1697
(lp1698
I81
aI152
aF2.6e-11
aassS'BGC0000472|ADA00389.1'
p1699
(dp1700
S'PF01797'
p1701
(lp1702
(lp1703
I10
aI126
aF1.2e-22
aassS'BGC0000628|HMPREF0514_11730'
p1704
(dp1705
S'PF02624'
p1706
(lp1707
(lp1708
I198
aI547
aF3.1e-45
aassS'BGC0001176|LP52_05060'
p1709
(dp1710
S'PF00005'
p1711
(lp1712
(lp1713
I362
aI511
aF3.0000000000000003e-30
aasS'PF00664'
p1714
(lp1715
(lp1716
I12
aI277
aF4.799999999999999e-29
aassS'BGC0000519|labKC'
p1717
(dp1718
S'PF05147'
p1719
(lp1720
(lp1721
I600
aI766
aF1.5e-07
aasS'PF00069'
p1722
(lp1723
(lp1724
I237
aI430
aF9e-12
aassS'BGC0000523|tnp1519L'
p1725
(dp1726
S'PF13610'
p1727
(lp1728
(lp1729
I72
aI202
aF2.4e-40
aassS'BGC0001176|LP52_05065'
p1730
(dp1731
S'PF13471'
p1732
(lp1733
(lp1734
I22
aI131
aF1.4e-23
aassS'BGC0000565|godC'
p1735
(dp1736
S'PF00005'
p1737
(lp1738
(lp1739
I345
aI487
aF1.6999999999999999e-19
aassS'BGC0000573|Caul_5195'
p1740
(dp1741
S'PF00392'
p1742
(lp1743
(lp1744
I52
aI113
aF4.5999999999999996e-11
aassS'BGC0000510|elkP'
p1745
(dp1746
S'PF00082'
p1747
(lp1748
(lp1749
I52
aI127
aF2.2e-07
aassS'BGC0000573|Caul_5190'
p1750
(dp1751
S'PF00326'
p1752
(lp1753
(lp1754
I475
aI635
aF8.699999999999998e-11
aassS'BGC0000573|Caul_5191'
p1755
(dp1756
S'PF00733'
p1757
(lp1758
(lp1759
I216
aI555
aF2.5000000000000003e-25
aassS'BGC0000565|godE'
p1760
(dp1761
S'PF00881'
p1762
(lp1763
(lp1764
I303
aI474
aF1e-05
aassS'BGC0000565|godD'
p1765
(dp1766
S'PF02624'
p1767
(lp1768
(lp1769
I365
aI698
aF1.6000000000000002e-95
aassS'BGC0000608|ADH93701.1'
p1770
(dp1771
S'PF14028'
p1772
(lp1773
(lp1774
I111
aI294
aF7.4e-10
aassS'BGC0000565|godI'
p1775
(dp1776
S'PF02881'
p1777
(lp1778
(lp1779
I5
aI82
aF2.5e-21
aasS'PF00448'
p1780
(lp1781
(lp1782
I100
aI298
aF2.7999999999999998e-67
aasS'PF02978'
p1783
(lp1784
(lp1785
I332
aI429
aF1.6e-30
aassS'BGC0000565|godH'
p1786
(dp1787
S'PF13302'
p1788
(lp1789
(lp1790
I17
aI165
aF2.3e-15
aassS'BGC0000564|sagD'
p1791
(dp1792
S'PF02624'
p1793
(lp1794
(lp1795
I68
aI421
aF2.4e-50
aassS'BGC0000568|mcbF'
p1796
(dp1797
S'PF00005'
p1798
(lp1799
(lp1800
I24
aI162
aF1.1999999999999998e-21
aassS'BGC0000611|sioE'
p1801
(dp1802
S'PF08028'
p1803
(lp1804
(lp1805
I250
aI372
aF3.2e-12
aasS'PF02771'
p1806
(lp1807
(lp1808
I12
aI119
aF4.2000000000000003e-13
aassS'BGC0000588|pemK'
p1809
(dp1810
S'PF02452'
p1811
(lp1812
(lp1813
I25
aI130
aF2.2999999999999997e-24
aassS'BGC0000531|mutA'
p1814
(dp1815
S'PF02052'
p1816
(lp1817
(lp1818
I12
aI65
aF8.5e-23
aassS'BGC0000568|mcbG'
p1819
(dp1820
S'PF13599'
p1821
(lp1822
(lp1823
I88
aI153
aF8.199999999999999e-11
aa(lp1824
I25
aI80
aF1.3e-07
aassS'BGC0001157|SCAB_56711'
p1825
(dp1826
S'PF05977'
p1827
(lp1828
(lp1829
I11
aI402
aF2.7000000000000005e-15
aassS'BGC0001171|LMOf2365_1114'
p1830
(dp1831
S'PF01061'
p1832
(lp1833
(lp1834
I4
aI204
aF1e-13
aassS'BGC0000559|spaE'
p1835
(dp1836
S'PF12730'
p1837
(lp1838
(lp1839
I5
aI166
aF4.700000000000001e-09
aassS'BGC0000559|spaF'
p1840
(dp1841
S'PF00005'
p1842
(lp1843
(lp1844
I31
aI167
aF5.2000000000000006e-33
aassS'BGC0001392|Cpin_5333'
p1845
(dp1846
S'PF12802'
p1847
(lp1848
(lp1849
I52
aI99
aF1.4e-10
aassS'BGC0001291|BAT21398.1'
p1850
(dp1851
S'PF04647'
p1852
(lp1853
(lp1854
I2
aI176
aF8.699999999999998e-24
aassS'BGC0001392|Cpin_5331'
p1855
(dp1856
S'PF07690'
p1857
(lp1858
(lp1859
I17
aI413
aF1.3e-53
aassS'BGC0000559|spaC'
p1860
(dp1861
S'PF05147'
p1862
(lp1863
(lp1864
I48
aI440
aF8.9e-91
aassS'BGC0001407|BCSJ1_09338'
p1865
(dp1866
S'PF00005'
p1867
(lp1868
(lp1869
I485
aI634
aF2e-37
aasS'PF03412'
p1870
(lp1871
(lp1872
I4
aI132
aF1.2e-37
aasS'PF00664'
p1873
(lp1874
(lp1875
I157
aI425
aF1.1e-34
aassS'BGC0001171|LMOf2365_1118'
p1876
(dp1877
S'PF02624'
p1878
(lp1879
(lp1880
I69
aI406
aF1.8e-35
aassS'BGC0001171|LMOf2365_1119'
p1881
(dp1882
S'PF02517'
p1883
(lp1884
(lp1885
I93
aI180
aF5.299999999999999e-06
aassS'BGC0000502|comA'
p1886
(dp1887
S'PF00196'
p1888
(lp1889
(lp1890
I153
aI205
aF1.7e-15
aasS'PF00072'
p1891
(lp1892
(lp1893
I4
aI114
aF1.3e-19
aassS'BGC0000559|spaK'
p1894
(dp1895
S'PF02518'
p1896
(lp1897
(lp1898
I351
aI457
aF5.5999999999999995e-14
aasS'PF00512'
p1899
(lp1900
(lp1901
I238
aI300
aF2.8999999999999997e-11
aassS'BGC0000559|spaT'
p1902
(dp1903
S'PF00005'
p1904
(lp1905
(lp1906
I370
aI523
aF2.7000000000000006e-31
aassS'BGC0000583|SGR_6363'
p1907
(dp1908
S'PF02441'
p1909
(lp1910
(lp1911
I13
aI143
aF1.5e-11
aassS'BGC0000583|SGR_6362'
p1912
(dp1913
S'PF13649'
p1914
(lp1915
(lp1916
I43
aI136
aF5.8e-16
aassS'BGC0000583|SGR_6365'
p1917
(dp1918
S'PF12697'
p1919
(lp1920
(lp1921
I351
aI561
aF6.099999999999999e-06
aassS'BGC0000485|CAA84400.1'
p1922
(dp1923
S'PF01944'
p1924
(lp1925
(lp1926
I14
aI112
aF1.8e-06
aassS'BGC0000559|spaS'
p1927
(dp1928
S'PF02052'
p1929
(lp1930
(lp1931
I5
aI37
aF3.9e-06
aassS'BGC0000604|tpdE'
p1932
(dp1933
S'PF00881'
p1934
(lp1935
(lp1936
I258
aI425
aF1.4e-08
aassS'BGC0001167|AFK79992.1'
p1937
(dp1938
S'PF05685'
p1939
(lp1940
(lp1941
I29
aI192
aF1.2e-24
aassS'BGC0001291|BAT21390.1'
p1942
(dp1943
S'PF01758'
p1944
(lp1945
(lp1946
I55
aI252
aF9.900000000000001e-46
aassS'BGC0000502|comQ'
p1947
(dp1948
S'PF00348'
p1949
(lp1950
(lp1951
I48
aI248
aF7.8e-15
aassS'BGC0000502|comP'
p1952
(dp1953
S'PF02518'
p1954
(lp1955
(lp1956
I682
aI770
aF6.8e-07
aasS'PF07730'
p1957
(lp1958
(lp1959
I573
aI639
aF1.6999999999999998e-06
aassS'BGC0000567|tfxE'
p1960
(dp1961
S'PF02624'
p1962
(lp1963
(lp1964
I71
aI220
aF1.6999999999999998e-06
aassS'BGC0001364|G339_RS0111980'
p1965
(dp1966
S'PF13788'
p1967
(lp1968
(lp1969
I9
aI118
aF2.2999999999999998e-39
aassS'BGC0000586|mceC'
p1970
(dp1971
S'PF06722'
p1972
(lp1973
(lp1974
I162
aI257
aF1.1000000000000001e-29
aasS'PF00201'
p1975
(lp1976
(lp1977
I251
aI325
aF1.5e-06
aassS'BGC0000527|mrsT'
p1978
(dp1979
S'PF00005'
p1980
(lp1981
(lp1982
I492
aI640
aF7.3e-35
aasS'PF03412'
p1983
(lp1984
(lp1985
I5
aI136
aF2.3999999999999997e-41
aasS'PF00664'
p1986
(lp1987
(lp1988
I162
aI425
aF4.900000000000001e-31
aassS'BGC0000586|mceD'
p1989
(dp1990
S'PF11806'
p1991
(lp1992
(lp1993
I59
aI172
aF4.2e-25
aasS'PF00756'
p1994
(lp1995
(lp1996
I192
aI412
aF7.2e-30
aassS'BGC0000586|mceG'
p1997
(dp1998
S'PF00005'
p1999
(lp2000
(lp2001
I512
aI658
aF4.700000000000001e-31
aasS'PF00664'
p2002
(lp2003
(lp2004
I179
aI444
aF2e-48
aasS'PF03412'
p2005
(lp2006
(lp2007
I21
aI149
aF7.1e-39
aassS'BGC0000586|mceF'
p2008
(dp2009
S'PF02517'
p2010
(lp2011
(lp2012
I123
aI215
aF1.3000000000000002e-10
aassS'BGC0000586|mceI'
p2013
(dp2014
S'PF02794'
p2015
(lp2016
(lp2017
I23
aI137
aF1.1999999999999999e-11
aassS'BGC0001148|pgm21'
p2018
(dp2019
S'PF13193'
p2020
(lp2021
(lp2022
I562
aI635
aF1.9e-11
aasS'PF00501'
p2023
(lp2024
(lp2025
I164
aI553
aF9.199999999999999e-82
aassS'BGC0000605|getD'
p2026
(dp2027
S'PF04738'
p2028
(lp2029
(lp2030
I494
aI646
aF9.9e-12
aa(lp2031
I47
aI265
aF1.1000000000000001e-08
aassS'BGC0001188|RZ84_RS20250'
p2032
(dp2033
S'PF00561'
p2034
(lp2035
(lp2036
I9
aI110
aF3.2000000000000005e-09
aassS'BGC0000527|mrsF'
p2037
(dp2038
S'PF00005'
p2039
(lp2040
(lp2041
I22
aI161
aF1.1000000000000003e-30
aassS'BGC0000527|mrsE'
p2042
(dp2043
S'PF12730'
p2044
(lp2045
(lp2046
I5
aI182
aF6.400000000000001e-22
aassS'BGC0000527|mrsD'
p2047
(dp2048
S'PF02441'
p2049
(lp2050
(lp2051
I9
aI161
aF3.5e-29
aassS'BGC0000565|BAE46927.1'
p2052
(dp2053
S'PF13359'
p2054
(lp2055
(lp2056
I137
aI296
aF3.4e-16
aasS'PF13613'
p2057
(lp2058
(lp2059
I59
aI107
aF1e-13
aassS'BGC0000536|nisQ'
p2060
(dp2061
S'PF02052'
p2062
(lp2063
(lp2064
I6
aI37
aF8.199999999999999e-08
aassS'BGC0000606|lazE'
p2065
(dp2066
S'PF02624'
p2067
(lp2068
(lp2069
I292
aI643
aF1.7e-78
aassS'BGC0000604|tpdD'
p2070
(dp2071
S'PF14028'
p2072
(lp2073
(lp2074
I3
aI317
aF1.2e-33
aassS'BGC0000548|salT'
p2075
(dp2076
S'PF00005'
p2077
(lp2078
(lp2079
I495
aI644
aF7.5e-29
aasS'PF03412'
p2080
(lp2081
(lp2082
I14
aI124
aF3.1999999999999998e-21
aasS'PF00664'
p2083
(lp2084
(lp2085
I167
aI411
aF2.6e-09
aassS'BGC0000527|mrsM'
p2086
(dp2087
S'PF13575'
p2088
(lp2089
(lp2090
I211
aI585
aF4.7000000000000005e-109
aasS'PF05147'
p2091
(lp2092
(lp2093
I709
aI1052
aF7.4e-87
aassS'BGC0001398|PhomE'
p2094
(dp2095
S'PF01494'
p2096
(lp2097
(lp2098
I46
aI330
aF9.000000000000001e-17
aassS'BGC0000499|AAD24813.1'
p2099
(dp2100
S'PF12730'
p2101
(lp2102
(lp2103
I2
aI182
aF1.6999999999999998e-28
aassS'BGC0000526|mcdK'
p2104
(dp2105
S'PF02518'
p2106
(lp2107
(lp2108
I345
aI451
aF2.2999999999999998e-10
aasS'PF00512'
p2109
(lp2110
(lp2111
I228
aI292
aF3.0000000000000004e-09
aassS'BGC0000566|SPy_0746'
p2112
(dp2113
S'PF12698'
p2114
(lp2115
(lp2116
I18
aI362
aF1.9e-40
aassS'BGC0000526|mcdM'
p2117
(dp2118
S'PF13575'
p2119
(lp2120
(lp2121
I92
aI463
aF2.9999999999999996e-65
aasS'PF05147'
p2122
(lp2123
(lp2124
I581
aI920
aF2.2e-48
aassS'BGC0000626|thuA'
p2125
(dp2126
S'PF04604'
p2127
(lp2128
(lp2129
I5
aI39
aF1e-11
aassS'BGC0001356|PDENDC454_19508'
p2130
(dp2131
S'PF00733'
p2132
(lp2133
(lp2134
I245
aI386
aF2.1000000000000002e-15
aa(lp2135
I512
aI615
aF5.1e-08
aasS'PF13537'
p2136
(lp2137
(lp2138
I66
aI165
aF6.8e-18
aassS'BGC0000581|mcjD'
p2139
(dp2140
S'PF00005'
p2141
(lp2142
(lp2143
I361
aI509
aF8.300000000000001e-28
aasS'PF00664'
p2144
(lp2145
(lp2146
I29
aI300
aF1.5e-11
aassS'BGC0000620|BAM66979.1'
p2147
(dp2148
S'PF01381'
p2149
(lp2150
(lp2151
I6
aI60
aF1.8e-19
aassS'BGC0000480|tenD'
p2152
(dp2153
S'PF02624'
p2154
(lp2155
(lp2156
I408
aI739
aF3.9e-92
aassS'BGC0000526|mcdE'
p2157
(dp2158
S'PF12730'
p2159
(lp2160
(lp2161
I5
aI169
aF9.5e-08
aassS'BGC0000526|mcdF'
p2162
(dp2163
S'PF00005'
p2164
(lp2165
(lp2166
I27
aI163
aF2.9999999999999997e-29
aassS'BGC0000526|mcdG'
p2167
(dp2168
S'PF12730'
p2169
(lp2170
(lp2171
I5
aI183
aF1.6e-11
aassS'BGC0000626|thuT'
p2172
(dp2173
S'PF00005'
p2174
(lp2175
(lp2176
I491
aI638
aF2.7000000000000004e-33
aasS'PF03412'
p2177
(lp2178
(lp2179
I6
aI136
aF1.5000000000000001e-30
aasS'PF00664'
p2180
(lp2181
(lp2182
I164
aI431
aF4.1999999999999995e-21
aassS'BGC0001364|G339_RS0112040'
p2183
(dp2184
S'PF13377'
p2185
(lp2186
(lp2187
I178
aI335
aF5.999999999999999e-39
aasS'PF00356'
p2188
(lp2189
(lp2190
I9
aI54
aF1.1000000000000001e-16
aassS'BGC0000611|sioK'
p2191
(dp2192
S'PF14028'
p2193
(lp2194
(lp2195
I9
aI316
aF1e-64
aassS'BGC0000594|mvdF'
p2196
(dp2197
S'PF12559'
p2198
(lp2199
(lp2200
I8
aI49
aF4.5e-10
aassS'BGC0001145|H340_11750'
p2201
(dp2202
S'PF02624'
p2203
(lp2204
(lp2205
I257
aI602
aF3.5e-92
aassS'BGC0000526|mcdR'
p2206
(dp2207
S'PF00072'
p2208
(lp2209
(lp2210
I12
aI121
aF7.900000000000001e-22
aasS'PF00486'
p2211
(lp2212
(lp2213
I154
aI230
aF8.3e-20
aassS'BGC0000494|ublD'
p2214
(dp2215
S'PF00005'
p2216
(lp2217
(lp2218
I23
aI163
aF1.4e-15
aassS'BGC0000526|mcdT'
p2219
(dp2220
S'PF00005'
p2221
(lp2222
(lp2223
I478
aI615
aF1.1e-22
aasS'PF03412'
p2224
(lp2225
(lp2226
I2
aI133
aF6.3e-36
aasS'PF00664'
p2227
(lp2228
(lp2229
I158
aI420
aF9.2e-18
aassS'BGC0000575|larB'
p2230
(dp2231
S'PF00733'
p2232
(lp2233
(lp2234
I213
aI600
aF3.4e-33
aassS'BGC0000494|ublA'
p2235
(dp2236
S'PF09221'
p2237
(lp2238
(lp2239
I8
aI76
aF4.9e-24
aassS'BGC0000472|ADA00392.1'
p2240
(dp2241
S'PF05685'
p2242
(lp2243
(lp2244
I31
aI193
aF6e-32
aassS'BGC0000587|mchE'
p2245
(dp2246
S'PF13437'
p2247
(lp2248
(lp2249
I260
aI357
aF8.9e-14
aassS'BGC0000576|RGE_06950'
p2250
(dp2251
S'PF00593'
p2252
(lp2253
(lp2254
I414
aI927
aF3.2000000000000006e-31
aasS'PF07715'
p2255
(lp2256
(lp2257
I110
aI221
aF4.3e-18
aassS'BGC0000480|tenA'
p2258
(dp2259
S'PF00082'
p2260
(lp2261
(lp2262
I14
aI255
aF1.9e-35
aassS'BGC0000469|AFV25468.1'
p2263
(dp2264
S'PF06182'
p2265
(lp2266
(lp2267
I61
aI292
aF1.9e-63
aassS'BGC0000561|BAJ10696.1'
p2268
(dp2269
S'PF13155'
p2270
(lp2271
(lp2272
I203
aI327
aF2.2e-11
aasS'PF13154'
p2273
(lp2274
(lp2275
I111
aI172
aF2.7000000000000002e-05
aassS'BGC0000574|Cseg_2564'
p2276
(dp2277
S'PF00733'
p2278
(lp2279
(lp2280
I222
aI580
aF8.499999999999999e-24
aassS'BGC0000574|Cseg_2565'
p2281
(dp2282
S'PF13471'
p2283
(lp2284
(lp2285
I110
aI214
aF1.3e-19
aassS'BGC0000536|niqR'
p2286
(dp2287
S'PF00072'
p2288
(lp2289
(lp2290
I4
aI112
aF4.7000000000000005e-26
aasS'PF00486'
p2291
(lp2292
(lp2293
I152
aI225
aF2.1000000000000002e-17
aassS'BGC0000485|acdB'
p2294
(dp2295
S'PF12173'
p2296
(lp2297
(lp2298
I1
aI91
aF6.8e-50
aassS'BGC0000574|Cseg_2563'
p2299
(dp2300
S'PF00326'
p2301
(lp2302
(lp2303
I614
aI789
aF3.2999999999999996e-23
aassS'BGC0000472|ADA00385.1'
p2304
(dp2305
S'PF02881'
p2306
(lp2307
(lp2308
I5
aI82
aF1.1e-21
aasS'PF00448'
p2309
(lp2310
(lp2311
I101
aI295
aF2.5e-75
aasS'PF02978'
p2312
(lp2313
(lp2314
I326
aI426
aF6.5e-29
aassS'BGC0000624|ABQ84446.1'
p2315
(dp2316
S'PF14501'
p2317
(lp2318
(lp2319
I325
aI426
aF4e-15
aassS'BGC0000496|amfA'
p2320
(dp2321
S'PF00005'
p2322
(lp2323
(lp2324
I399
aI542
aF1.2e-25
aassS'BGC0000496|amfB'
p2325
(dp2326
S'PF00005'
p2327
(lp2328
(lp2329
I350
aI496
aF9.099999999999999e-20
aasS'PF00664'
p2330
(lp2331
(lp2332
I27
aI287
aF1.1000000000000001e-13
aassS'BGC0000488|cfgR'
p2333
(dp2334
S'PF04397'
p2335
(lp2336
(lp2337
I156
aI233
aF1e-08
aasS'PF00072'
p2338
(lp2339
(lp2340
I4
aI116
aF7.099999999999999e-16
aassS'BGC0001155|tuf'
p2341
(dp2342
S'PF03144'
p2343
(lp2344
(lp2345
I227
aI295
aF1.7e-15
aasS'PF00009'
p2346
(lp2347
(lp2348
I10
aI203
aF7.8e-58
aasS'PF03143'
p2349
(lp2350
(lp2351
I302
aI395
aF1.8999999999999998e-34
aassS'BGC0000612|BC_5074'
p2352
(dp2353
S'PF13411'
p2354
(lp2355
(lp2356
I2
aI65
aF1.2e-10
aassS'BGC0000514|gdmQ'
p2357
(dp2358
S'PF00486'
p2359
(lp2360
(lp2361
I127
aI198
aF2.7000000000000004e-17
aassS'BGC0000514|gdmP'
p2362
(dp2363
S'PF00082'
p2364
(lp2365
(lp2366
I141
aI451
aF2.3e-45
aassS'BGC0000469|botOMT'
p2367
(dp2368
S'PF04072'
p2369
(lp2370
(lp2371
I17
aI170
aF2.2000000000000002e-18
aassS'BGC0000514|gdmT'
p2372
(dp2373
S'PF00005'
p2374
(lp2375
(lp2376
I226
aI375
aF1.7e-25
aasS'PF00664'
p2377
(lp2378
(lp2379
I2
aI165
aF3.7e-20
aassS'BGC0000496|amfR'
p2380
(dp2381
S'PF00196'
p2382
(lp2383
(lp2384
I140
aI195
aF8.3e-12
aasS'PF00072'
p2385
(lp2386
(lp2387
I4
aI113
aF6.799999999999999e-06
aassS'BGC0000514|gdmH'
p2388
(dp2389
S'PF02698'
p2390
(lp2391
(lp2392
I161
aI302
aF3.2999999999999997e-28
aassS'BGC0000496|amfT'
p2393
(dp2394
S'PF00069'
p2395
(lp2396
(lp2397
I243
aI435
aF7e-13
aassS'BGC0000525|LchM1'
p2398
(dp2399
S'PF13575'
p2400
(lp2401
(lp2402
I189
aI561
aF1.2e-117
aasS'PF05147'
p2403
(lp2404
(lp2405
I683
aI1029
aF8.6e-83
aassS'BGC0000516|G11MC16DRAFT_3399'
p2406
(dp2407
S'PF05139'
p2408
(lp2409
(lp2410
I61
aI374
aF7.1e-31
aassS'BGC0000514|gdmB'
p2411
(dp2412
S'PF14028'
p2413
(lp2414
(lp2415
I713
aI957
aF4.7000000000000006e-17
aasS'PF04738'
p2416
(lp2417
(lp2418
I31
aI654
aF2.6e-119
aassS'BGC0000488|cfgK'
p2419
(dp2420
S'PF14501'
p2421
(lp2422
(lp2423
I309
aI412
aF1.4e-09
aassS'BGC0000516|G11MC16DRAFT_3401'
p2424
(dp2425
S'PF13575'
p2426
(lp2427
(lp2428
I177
aI553
aF2.3e-120
aasS'PF05147'
p2429
(lp2430
(lp2431
I676
aI1020
aF3e-70
aassS'BGC0000514|gdmF'
p2432
(dp2433
S'PF00005'
p2434
(lp2435
(lp2436
I1
aI111
aF2.3e-15
aassS'BGC0000479|AED99444.1'
p2437
(dp2438
S'PF05685'
p2439
(lp2440
(lp2441
I14
aI171
aF9.9e-37
aassS'BGC0000514|gdmD'
p2442
(dp2443
S'PF02441'
p2444
(lp2445
(lp2446
I4
aI173
aF2.7e-28
aassS'BGC0000627|AFLA_094990'
p2447
(dp2448
S'PF11807'
p2449
(lp2450
(lp2451
I94
aI204
aF5.400000000000001e-26
aassS'BGC0000595|SCO2449'
p2452
(dp2453
S'PF07728'
p2454
(lp2455
(lp2456
I78
aI233
aF1.4e-06
aassS'BGC0000540|paenN'
p2457
(dp2458
S'PF05857'
p2459
(lp2460
(lp2461
I21
aI249
aF4.599999999999999e-36
aassS'BGC0000471|Osc7112_3648'
p2462
(dp2463
S'PF00082'
p2464
(lp2465
(lp2466
I14
aI254
aF1.6999999999999999e-35
aassS'BGC0000521|lctG'
p2467
(dp2468
S'PF12730'
p2469
(lp2470
(lp2471
I5
aI181
aF3e-19
aassS'BGC0000469|botCD'
p2472
(dp2473
S'PF02624'
p2474
(lp2475
(lp2476
I16
aI356
aF1.1000000000000001e-35
aassS'BGC0000579|SSEG_09674'
p2477
(dp2478
S'PF13471'
p2479
(lp2480
(lp2481
I24
aI133
aF6.6e-27
aassS'BGC0000508|epiA'
p2482
(dp2483
S'PF02052'
p2484
(lp2485
(lp2486
I1
aI52
aF9.9e-37
aassS'BGC0000516|G11MC16DRAFT_3400'
p2487
(dp2488
S'PF00005'
p2489
(lp2490
(lp2491
I490
aI639
aF9.9e-36
aasS'PF03412'
p2492
(lp2493
(lp2494
I7
aI133
aF7.1e-33
aasS'PF00664'
p2495
(lp2496
(lp2497
I161
aI427
aF3.9e-23
aassS'BGC0000569|ptnH'
p2498
(dp2499
S'PF01061'
p2500
(lp2501
(lp2502
I6
aI204
aF4.7999999999999993e-23
aassS'BGC0000587|mchF'
p2503
(dp2504
S'PF00005'
p2505
(lp2506
(lp2507
I511
aI658
aF1.8000000000000002e-32
aasS'PF00664'
p2508
(lp2509
(lp2510
I179
aI444
aF8e-47
aasS'PF03412'
p2511
(lp2512
(lp2513
I21
aI149
aF2e-39
aassS'BGC0000555|BAB78442.1'
p2514
(dp2515
S'PF13575'
p2516
(lp2517
(lp2518
I109
aI479
aF3.1e-69
aasS'PF05147'
p2519
(lp2520
(lp2521
I601
aI904
aF5e-50
aassS'BGC0000617|coaA'
p2522
(dp2523
S'PF01721'
p2524
(lp2525
(lp2526
I19
aI53
aF1.3999999999999999e-14
aassS'BGC0000547|sivM'
p2527
(dp2528
S'PF13575'
p2529
(lp2530
(lp2531
I91
aI461
aF2.7000000000000002e-58
aasS'PF05147'
p2532
(lp2533
(lp2534
I578
aI919
aF6.5e-58
aassS'BGC0000515|spaG'
p2535
(dp2536
S'PF12730'
p2537
(lp2538
(lp2539
I3
aI103
aF4.4e-07
aassS'BGC0000547|sivK'
p2540
(dp2541
S'PF02518'
p2542
(lp2543
(lp2544
I346
aI452
aF5.3e-15
aasS'PF00512'
p2545
(lp2546
(lp2547
I229
aI291
aF7.299999999999999e-11
aassS'BGC0000568|mcbD'
p2548
(dp2549
S'PF02624'
p2550
(lp2551
(lp2552
I53
aI272
aF1e-14
aassS'BGC0000547|sivG'
p2553
(dp2554
S'PF12730'
p2555
(lp2556
(lp2557
I7
aI181
aF4.6e-09
aassS'BGC0000547|sivF'
p2558
(dp2559
S'PF00005'
p2560
(lp2561
(lp2562
I32
aI168
aF1e-28
aassS'BGC0000547|sivE'
p2563
(dp2564
S'PF12730'
p2565
(lp2566
(lp2567
I5
aI156
aF1e-11
aassS'BGC0001173|BAT_RS01180'
p2568
(dp2569
S'PF13601'
p2570
(lp2571
(lp2572
I15
aI93
aF1.2e-25
aassS'BGC0000547|sivA'
p2573
(dp2574
S'PF04604'
p2575
(lp2576
(lp2577
I1
aI56
aF7.7e-23
aassS'BGC0000596|SSPG_05082'
p2578
(dp2579
S'PF03704'
p2580
(lp2581
(lp2582
I607
aI746
aF9.800000000000001e-27
aasS'PF07714'
p2583
(lp2584
(lp2585
I305
aI422
aF3.5000000000000003e-09
aassS'BGC0000612|BC_5084'
p2586
(dp2587
S'PF04738'
p2588
(lp2589
(lp2590
I145
aI785
aF2.1e-41
aassS'BGC0000612|BC_5085'
p2591
(dp2592
S'PF02624'
p2593
(lp2594
(lp2595
I161
aI501
aF4.299999999999999e-80
aassS'BGC0000596|SSPG_05087'
p2596
(dp2597
S'PF00082'
p2598
(lp2599
(lp2600
I218
aI473
aF4.1e-56
aassS'BGC0000596|SSPG_05084'
p2601
(dp2602
S'PF07728'
p2603
(lp2604
(lp2605
I78
aI233
aF1.4e-06
aassS'BGC0000596|SSPG_05085'
p2606
(dp2607
S'PF13365'
p2608
(lp2609
(lp2610
I17
aI166
aF1.6e-11
aassS'BGC0000516|G11MC16DRAFT_3403'
p2611
(dp2612
S'PF00196'
p2613
(lp2614
(lp2615
I149
aI203
aF8.300000000000002e-15
aasS'PF00072'
p2616
(lp2617
(lp2618
I4
aI115
aF4.8e-26
aassS'BGC0000596|SSPG_05088'
p2619
(dp2620
S'PF01039'
p2621
(lp2622
(lp2623
I2
aI144
aF2.1000000000000002e-10
aassS'BGC0000547|sivT'
p2624
(dp2625
S'PF00005'
p2626
(lp2627
(lp2628
I480
aI616
aF2.1e-24
aasS'PF03412'
p2629
(lp2630
(lp2631
I2
aI133
aF1.3e-35
aasS'PF00664'
p2632
(lp2633
(lp2634
I158
aI421
aF8.199999999999999e-24
aassS'BGC0000491|gaaD'
p2635
(dp2636
S'PF01944'
p2637
(lp2638
(lp2639
I14
aI155
aF7.799999999999999e-07
aassS'BGC0000609|noc-10'
p2640
(dp2641
S'PF13191'
p2642
(lp2643
(lp2644
I458
aI634
aF8.9e-13
aasS'PF03704'
p2645
(lp2646
(lp2647
I127
aI272
aF4.6e-43
aassS'BGC0000609|noc-11'
p2648
(dp2649
S'PF02801'
p2650
(lp2651
(lp2652
I290
aI405
aF5.0999999999999995e-44
aasS'PF00109'
p2653
(lp2654
(lp2655
I32
aI282
aF2.2000000000000003e-90
aasS'PF08990'
p2656
(lp2657
(lp2658
I3
aI27
aF2.7000000000000004e-08
aassS'BGC0000487|trxA'
p2659
(dp2660
S'PF13728'
p2661
(lp2662
(lp2663
I44
aI122
aF1.7e-05
aassS'BGC0001155|pbtM1'
p2664
(dp2665
S'PF05175'
p2666
(lp2667
(lp2668
I134
aI220
aF2.7999999999999997e-11
aassS'BGC0000553|SSGG_RS09915'
p2669
(dp2670
S'PF00196'
p2671
(lp2672
(lp2673
I140
aI195
aF4.400000000000001e-12
aasS'PF00072'
p2674
(lp2675
(lp2676
I4
aI113
aF5.2e-07
aassS'BGC0001155|pbtM2'
p2677
(dp2678
S'PF04055'
p2679
(lp2680
(lp2681
I7
aI184
aF6.099999999999999e-19
aassS'BGC0000628|HMPREF0514_11738'
p2682
(dp2683
S'PF07739'
p2684
(lp2685
(lp2686
I20
aI133
aF1.9e-22
aassS'BGC0000521|lctE'
p2687
(dp2688
S'PF12730'
p2689
(lp2690
(lp2691
I5
aI179
aF3.5e-14
aassS'BGC0001157|SCAB_56591'
p2692
(dp2693
S'PF02789'
p2694
(lp2695
(lp2696
I22
aI130
aF1e-13
aasS'PF00883'
p2697
(lp2698
(lp2699
I161
aI472
aF1.3999999999999998e-98
aassS'BGC0001167|AFK79997.1'
p2700
(dp2701
S'PF05685'
p2702
(lp2703
(lp2704
I51
aI204
aF5.999999999999999e-20
aassS'BGC0000517|BH0454'
p2705
(dp2706
S'PF14867'
p2707
(lp2708
(lp2709
I39
aI69
aF7.5e-19
aassS'BGC0000541|paeT'
p2710
(dp2711
S'PF00005'
p2712
(lp2713
(lp2714
I385
aI537
aF3.3e-32
aassS'BGC0001157|SCAB_56611'
p2715
(dp2716
S'PF04055'
p2717
(lp2718
(lp2719
I279
aI436
aF5.7e-08
aassS'BGC0000479|AED99427.1'
p2720
(dp2721
S'PF04480'
p2722
(lp2723
(lp2724
I11
aI117
aF1.4e-27
aassS'BGC0000613|tpdH'
p2725
(dp2726
S'PF01546'
p2727
(lp2728
(lp2729
I107
aI386
aF9.1e-16
aassS'BGC0001289|ALR96374.1'
p2730
(dp2731
S'PF11256'
p2732
(lp2733
(lp2734
I7
aI87
aF2.4e-37
aassS'BGC0001311|RUMFLAFD1_RS22795'
p2735
(dp2736
S'PF13483'
p2737
(lp2738
(lp2739
I10
aI184
aF5.0999999999999995e-23
aassS'BGC0000498|bovT'
p2740
(dp2741
S'PF00005'
p2742
(lp2743
(lp2744
I482
aI629
aF2.4e-24
aasS'PF03412'
p2745
(lp2746
(lp2747
I7
aI130
aF2.8e-31
aasS'PF00664'
p2748
(lp2749
(lp2750
I162
aI422
aF4.8e-12
aassS'BGC0000500|crnP'
p2751
(dp2752
S'PF00082'
p2753
(lp2754
(lp2755
I153
aI407
aF1.9e-31
aassS'BGC0000606|lazF'
p2756
(dp2757
S'PF14028'
p2758
(lp2759
(lp2760
I11
aI293
aF2.7000000000000002e-45
aasS'PF00881'
p2761
(lp2762
(lp2763
I362
aI547
aF7.5e-12
aassS'BGC0000500|crnT'
p2764
(dp2765
S'PF00005'
p2766
(lp2767
(lp2768
I483
aI630
aF3.9e-37
aasS'PF03412'
p2769
(lp2770
(lp2771
I4
aI130
aF1.4e-32
aasS'PF00664'
p2772
(lp2773
(lp2774
I159
aI417
aF7.599999999999999e-28
aassS'BGC0000495|ACR33064.1'
p2775
(dp2776
S'PF01116'
p2777
(lp2778
(lp2779
I4
aI284
aF1.4999999999999998e-74
aassS'BGC0000606|lazC'
p2780
(dp2781
S'PF14028'
p2782
(lp2783
(lp2784
I18
aI257
aF2.1000000000000002e-14
aassS'BGC0000577|SJA_P1-00920'
p2785
(dp2786
S'PF00593'
p2787
(lp2788
(lp2789
I361
aI853
aF9.900000000000001e-35
aasS'PF07715'
p2790
(lp2791
(lp2792
I133
aI249
aF4.7999999999999995e-19
aassS'BGC0000628|HMPREF0514_11732'
p2793
(dp2794
S'PF14028'
p2795
(lp2796
(lp2797
I7
aI190
aF9.300000000000002e-30
aassS'BGC0000500|crnJ'
p2798
(dp2799
S'PF03358'
p2800
(lp2801
(lp2802
I3
aI148
aF4.5e-21
aassS'BGC0000500|crnM'
p2803
(dp2804
S'PF13575'
p2805
(lp2806
(lp2807
I197
aI565
aF2e-85
aasS'PF05147'
p2808
(lp2809
(lp2810
I679
aI988
aF2.2000000000000004e-33
aassS'BGC0001364|G339_RS0111955'
p2811
(dp2812
S'PF07366'
p2813
(lp2814
(lp2815
I18
aI135
aF6.200000000000001e-18
aassS'BGC0000579|SSEG_09672'
p2816
(dp2817
S'PF00733'
p2818
(lp2819
(lp2820
I40
aI424
aF8.499999999999999e-38
aassS'BGC0001306|AFLA_041380'
p2821
(dp2822
S'PF07690'
p2823
(lp2824
(lp2825
I122
aI445
aF1.2e-10
aassS'BGC0000552|smbM2'
p2826
(dp2827
S'PF13575'
p2828
(lp2829
(lp2830
I110
aI463
aF3.2000000000000003e-46
aasS'PF05147'
p2831
(lp2832
(lp2833
I590
aI861
aF1.8e-12
aassS'BGC0000613|tpdJ2'
p2834
(dp2835
S'PF00067'
p2836
(lp2837
(lp2838
I52
aI402
aF4e-30
aassS'BGC0000514|gdmC'
p2839
(dp2840
S'PF05147'
p2841
(lp2842
(lp2843
I37
aI416
aF8.699999999999999e-83
aassS'BGC0001146|luxR'
p2844
(dp2845
S'PF00196'
p2846
(lp2847
(lp2848
I840
aI891
aF5.2e-11
aasS'PF13191'
p2849
(lp2850
(lp2851
I2
aI59
aF9.800000000000001e-10
aassS'BGC0000564|SagB'
p2852
(dp2853
S'PF00881'
p2854
(lp2855
(lp2856
I124
aI314
aF1.7e-25
aassS'BGC0000495|ACR33060.1'
p2857
(dp2858
S'PF00905'
p2859
(lp2860
(lp2861
I369
aI653
aF1.3000000000000002e-17
aasS'PF00912'
p2862
(lp2863
(lp2864
I78
aI257
aF1.4999999999999999e-55
aassS'BGC0000628|HMPREF0514_11731'
p2865
(dp2866
S'PF04738'
p2867
(lp2868
(lp2869
I135
aI738
aF3.3999999999999995e-23
aassS'BGC0000613|tpdD'
p2870
(dp2871
S'PF14028'
p2872
(lp2873
(lp2874
I3
aI310
aF4.2e-47
aassS'BGC0001307|cptC'
p2875
(dp2876
S'PF00733'
p2877
(lp2878
(lp2879
I209
aI593
aF2.8999999999999998e-36
aassS'BGC0000552|smbM1'
p2880
(dp2881
S'PF13575'
p2882
(lp2883
(lp2884
I147
aI484
aF4.1e-59
aasS'PF05147'
p2885
(lp2886
(lp2887
I607
aI952
aF3.3999999999999994e-67
aassS'BGC0000628|HMPREF0514_11737'
p2888
(dp2889
S'PF00561'
p2890
(lp2891
(lp2892
I23
aI280
aF2.4e-20
aassS'BGC0000606|ltc74'
p2893
(dp2894
S'PF05147'
p2895
(lp2896
(lp2897
I533
aI797
aF1e-14
aasS'PF00069'
p2898
(lp2899
(lp2900
I226
aI478
aF6.700000000000001e-13
aassS'BGC0001289|ALR96376.1'
p2901
(dp2902
S'PF02311'
p2903
(lp2904
(lp2905
I22
aI92
aF1.6e-06
aasS'PF12833'
p2906
(lp2907
(lp2908
I186
aI263
aF7.499999999999999e-21
aassS'BGC0001388|gaeK'
p2909
(dp2910
S'PF14501'
p2911
(lp2912
(lp2913
I320
aI427
aF8.599999999999999e-11
aassS'BGC0000610|nos4'
p2914
(dp2915
S'PF05000'
p2916
(lp2917
(lp2918
I760
aI824
aF7.9e-14
aasS'PF04998'
p2919
(lp2920
(lp2921
I838
aI1199
aF1.1999999999999999e-66
aasS'PF04997'
p2922
(lp2923
(lp2924
I7
aI417
aF5e-82
aasS'PF04983'
p2925
(lp2926
(lp2927
I564
aI731
aF4.2e-24
aasS'PF00623'
p2928
(lp2929
(lp2930
I468
aI560
aF9.8e-28
aa(lp2931
I419
aI480
aF1.3e-08
aassS'BGC0000555|BAB78441.1'
p2932
(dp2933
S'PF00005'
p2934
(lp2935
(lp2936
I498
aI645
aF1.7e-29
aasS'PF03412'
p2937
(lp2938
(lp2939
I13
aI141
aF1.2e-37
aasS'PF00664'
p2940
(lp2941
(lp2942
I172
aI435
aF2.7e-22
aassS'BGC0000483|MICCA_2630002'
p2943
(dp2944
S'PF00881'
p2945
(lp2946
(lp2947
I270
aI463
aF7.8e-12
aasS'PF00082'
p2948
(lp2949
(lp2950
I647
aI916
aF3.3e-18
aassS'BGC0000556|srtB'
p2951
(dp2952
S'PF14028'
p2953
(lp2954
(lp2955
I724
aI891
aF1.6999999999999998e-12
aasS'PF04738'
p2956
(lp2957
(lp2958
I30
aI657
aF1.9e-89
aassS'BGC0000469|AFV25494.1'
p2959
(dp2960
S'PF00291'
p2961
(lp2962
(lp2963
I2
aI277
aF3.8e-67
aassS'BGC0000473|mcaA'
p2964
(dp2965
S'PF00082'
p2966
(lp2967
(lp2968
I14
aI254
aF1.3000000000000001e-30
aassS'BGC0000614|ACN52307.1'
p2969
(dp2970
S'PF08028'
p2971
(lp2972
(lp2973
I231
aI353
aF4e-12
aasS'PF02771'
p2974
(lp2975
(lp2976
I5
aI100
aF1.9e-11
aassS'BGC0000473|mcaG'
p2977
(dp2978
S'PF00881'
p2979
(lp2980
(lp2981
I307
aI515
aF7.5e-12
aasS'PF00082'
p2982
(lp2983
(lp2984
I743
aI961
aF4.9e-19
aassS'BGC0000473|mcaD'
p2985
(dp2986
S'PF02624'
p2987
(lp2988
(lp2989
I407
aI739
aF3.9e-96
aassS'BGC0000565|godB'
p2990
(dp2991
S'PF00005'
p2992
(lp2993
(lp2994
I359
aI495
aF9.399999999999999e-21
aassS'BGC0000539|BAC98767.1'
p2995
(dp2996
S'PF13614'
p2997
(lp2998
(lp2999
I13
aI132
aF4.700000000000001e-15
aassS'BGC0000520|ltnA'
p3000
(dp3001
S'PF14867'
p3002
(lp3003
(lp3004
I28
aI59
aF4e-09
aassS'BGC0000598|poyC'
p3005
(dp3006
S'PF04055'
p3007
(lp3008
(lp3009
I269
aI431
aF1.1e-11
aassS'BGC0000603|cltO'
p3010
(dp3011
S'PF07690'
p3012
(lp3013
(lp3014
I12
aI192
aF2.5e-28
aa(lp3015
I197
aI413
aF3.6000000000000005e-08
aassS'BGC0000607|tclL'
p3016
(dp3017
S'PF14028'
p3018
(lp3019
(lp3020
I3
aI193
aF6.7e-28
aassS'BGC0000607|tclS'
p3021
(dp3022
S'PF00106'
p3023
(lp3024
(lp3025
I5
aI188
aF8.199999999999999e-16
aassS'BGC0000554|SSGG_RS13150'
p3026
(dp3027
S'PF00005'
p3028
(lp3029
(lp3030
I501
aI650
aF4.2e-34
aasS'PF03412'
p3031
(lp3032
(lp3033
I15
aI142
aF3.2000000000000003e-35
aasS'PF00664'
p3034
(lp3035
(lp3036
I176
aI434
aF2.5000000000000002e-30
aassS'BGC0000607|tclQ'
p3037
(dp3038
S'PF03946'
p3039
(lp3040
(lp3041
I9
aI65
aF5.0999999999999995e-23
aasS'PF00298'
p3042
(lp3043
(lp3044
I70
aI138
aF2.3999999999999997e-23
aassS'BGC0000607|tclP'
p3045
(dp3046
S'PF13561'
p3047
(lp3048
(lp3049
I41
aI230
aF9.8e-40
aassS'BGC0000554|SSGG_RS13155'
p3050
(dp3051
S'PF13575'
p3052
(lp3053
(lp3054
I199
aI580
aF4.5e-103
aasS'PF05147'
p3055
(lp3056
(lp3057
I698
aI1067
aF1.6e-52
aassS'BGC0000607|tclU'
p3058
(dp3059
S'PF13411'
p3060
(lp3061
(lp3062
I5
aI70
aF1.2e-12
aassS'BGC0000565|godG'
p3063
(dp3064
S'PF14028'
p3065
(lp3066
(lp3067
I8
aI217
aF1.5e-19
aassS'BGC0001307|cptB2'
p3068
(dp3069
S'PF13471'
p3070
(lp3071
(lp3072
I22
aI133
aF8.699999999999999e-29
aassS'BGC0001170|CLOSPO_RS15760'
p3073
(dp3074
S'PF00881'
p3075
(lp3076
(lp3077
I124
aI314
aF1e-25
aassS'BGC0001146|ctmE'
p3078
(dp3079
S'PF04738'
p3080
(lp3081
(lp3082
I140
aI813
aF8e-84
aassS'BGC0000539|nukG'
p3083
(dp3084
S'PF12730'
p3085
(lp3086
(lp3087
I4
aI181
aF2.3e-19
aassS'BGC0000579|SSEG_05178'
p3088
(dp3089
S'PF01061'
p3090
(lp3091
(lp3092
I35
aI244
aF4e-34
aassS'BGC0000627|AFLA_095050'
p3093
(dp3094
S'PF00743'
p3095
(lp3096
(lp3097
I123
aI278
aF3.5e-17
aa(lp3098
I319
aI452
aF7.4e-07
aasS'PF13450'
p3099
(lp3100
(lp3101
I11
aI61
aF2.7e-07
aassS'BGC0000560|subP'
p3102
(dp3103
S'PF00082'
p3104
(lp3105
(lp3106
I35
aI296
aF7.200000000000001e-25
aassS'BGC0000469|AFV25472.1'
p3107
(dp3108
S'PF00578'
p3109
(lp3110
(lp3111
I34
aI160
aF6.6000000000000005e-37
aassS'BGC0000539|nukA'
p3112
(dp3113
S'PF04604'
p3114
(lp3115
(lp3116
I1
aI56
aF6.3e-26
aassS'BGC0001167|AFK79990.1'
p3117
(dp3118
S'PF01724'
p3119
(lp3120
(lp3121
I10
aI147
aF1.6e-39
aassS'BGC0000539|nukM'
p3122
(dp3123
S'PF13575'
p3124
(lp3125
(lp3126
I89
aI457
aF1e-69
aasS'PF05147'
p3127
(lp3128
(lp3129
I573
aI908
aF2.8e-74
aassS'BGC0000545|CAC60272.1'
p3130
(dp3131
S'PF04203'
p3132
(lp3133
(lp3134
I5
aI96
aF3.1000000000000004e-13
aassS'BGC0000516|G11MC16DRAFT_3406'
p3135
(dp3136
S'PF00348'
p3137
(lp3138
(lp3139
I58
aI250
aF1.5e-16
aassS'BGC0000549|AEX55157.1'
p3140
(dp3141
S'PF05598'
p3142
(lp3143
(lp3144
I26
aI91
aF6.4e-12
aasS'PF01609'
p3145
(lp3146
(lp3147
I212
aI293
aF1.2e-07
aassS'BGC0000595|SCO2451'
p3148
(dp3149
S'PF06723'
p3150
(lp3151
(lp3152
I17
aI339
aF5.1e-111
aassS'BGC0000595|SCO2450'
p3153
(dp3154
S'PF03704'
p3155
(lp3156
(lp3157
I918
aI1057
aF1.4e-26
aasS'PF07714'
p3158
(lp3159
(lp3160
I616
aI733
aF4.900000000000001e-09
aassS'BGC0000539|nukT'
p3161
(dp3162
S'PF00005'
p3163
(lp3164
(lp3165
I480
aI618
aF6.1e-22
aasS'PF03412'
p3166
(lp3167
(lp3168
I2
aI134
aF5.8e-35
aasS'PF00664'
p3169
(lp3170
(lp3171
I158
aI421
aF8.300000000000001e-27
aassS'BGC0000596|SSPG_05092'
p3172
(dp3173
S'PF00392'
p3174
(lp3175
(lp3176
I13
aI75
aF1.6000000000000002e-19
aasS'PF07729'
p3177
(lp3178
(lp3179
I98
aI219
aF5.6e-26
aassS'BGC0000614|ACN52306.1'
p3180
(dp3181
S'PF04072'
p3182
(lp3183
(lp3184
I10
aI180
aF7.4e-47
aassS'BGC0000560|subB'
p3185
(dp3186
S'PF14028'
p3187
(lp3188
(lp3189
I764
aI1019
aF2.4000000000000002e-30
aasS'PF04738'
p3190
(lp3191
(lp3192
I49
aI688
aF4e-131
aassS'BGC0000560|subC'
p3193
(dp3194
S'PF05147'
p3195
(lp3196
(lp3197
I45
aI438
aF2.7999999999999997e-60
aassS'BGC0001306|AFLA_041370'
p3198
(dp3199
S'PF05368'
p3200
(lp3201
(lp3202
I5
aI228
aF3.5e-27
aassS'BGC0001407|BCSJ1_09343'
p3203
(dp3204
S'PF00082'
p3205
(lp3206
(lp3207
I135
aI426
aF3.7999999999999996e-44
aassS'BGC0000559|AAB91592.1'
p3208
(dp3209
S'PF01638'
p3210
(lp3211
(lp3212
I16
aI104
aF4.7e-34
aassS'BGC0000609|nocN'
p3213
(dp3214
S'PF04055'
p3215
(lp3216
(lp3217
I35
aI214
aF2.1000000000000002e-14
aassS'BGC0000590|ACP43451.1'
p3218
(dp3219
S'PF00529'
p3220
(lp3221
(lp3222
I36
aI397
aF6.300000000000001e-15
aassS'BGC0000614|ACN52301.1'
p3223
(dp3224
S'PF00067'
p3225
(lp3226
(lp3227
I218
aI263
aF2e-05
aassS'BGC0000600|thnE'
p3228
(dp3229
S'PF13346'
p3230
(lp3231
(lp3232
I4
aI210
aF2.6e-25
aassS'BGC0000469|AFV25496.1'
p3233
(dp3234
S'PF13377'
p3235
(lp3236
(lp3237
I205
aI367
aF4e-33
aasS'PF00356'
p3238
(lp3239
(lp3240
I31
aI76
aF1.1000000000000001e-18
aassS'BGC0001364|G339_RS0112010'
p3241
(dp3242
S'PF16912'
p3243
(lp3244
(lp3245
I146
aI347
aF1.4e-55
aasS'PF08240'
p3246
(lp3247
(lp3248
I27
aI138
aF1.6e-11
aassS'BGC0000622|ABS44973.1'
p3249
(dp3250
S'PF01520'
p3251
(lp3252
(lp3253
I4
aI176
aF2.4e-43
aassS'BGC0000522|orf5z'
p3254
(dp3255
S'PF03703'
p3256
(lp3257
(lp3258
I65
aI143
aF7.6e-09
aa(lp3259
I232
aI287
aF0.00013
aassS'BGC0000551|SCO6681'
p3260
(dp3261
S'PF00069'
p3262
(lp3263
(lp3264
I267
aI457
aF8.6e-10
aassS'BGC0000551|SCO6683'
p3265
(dp3266
S'PF00005'
p3267
(lp3268
(lp3269
I375
aI516
aF8.199999999999998e-21
aasS'PF00664'
p3270
(lp3271
(lp3272
I46
aI300
aF1.6e-17
aassS'BGC0000551|SCO6684'
p3273
(dp3274
S'PF00005'
p3275
(lp3276
(lp3277
I393
aI538
aF1.6000000000000002e-22
aassS'BGC0001398|PhomR'
p3278
(dp3279
S'PF11951'
p3280
(lp3281
(lp3282
I310
aI632
aF6.3e-22
aasS'PF00172'
p3283
(lp3284
(lp3285
I13
aI50
aF3.7e-07
aassS'BGC0001398|PhomQ'
p3286
(dp3287
S'PF00264'
p3288
(lp3289
(lp3290
I114
aI318
aF2.2999999999999996e-40
aassS'BGC0001398|PhomP'
p3291
(dp3292
S'PF03572'
p3293
(lp3294
(lp3295
I303
aI504
aF6.200000000000001e-09
aassS'BGC0000469|AFV25466.1'
p3296
(dp3297
S'PF08044'
p3298
(lp3299
(lp3300
I17
aI69
aF1.3e-23
aassS'BGC0001392|Cpin_5332'
p3301
(dp3302
S'PF13533'
p3303
(lp3304
(lp3305
I52
aI98
aF3.6000000000000005e-08
aasS'PF16576'
p3306
(lp3307
(lp3308
I127
aI292
aF1.5e-16
aassS'BGC0000589|mchF'
p3309
(dp3310
S'PF00005'
p3311
(lp3312
(lp3313
I511
aI658
aF1.8000000000000002e-32
aasS'PF00664'
p3314
(lp3315
(lp3316
I179
aI444
aF2e-46
aasS'PF03412'
p3317
(lp3318
(lp3319
I21
aI147
aF2.7999999999999995e-39
aassS'BGC0000589|mchE'
p3320
(dp3321
S'PF13437'
p3322
(lp3323
(lp3324
I249
aI346
aF2.2999999999999997e-14
aassS'BGC0000589|mchD'
p3325
(dp3326
S'PF02794'
p3327
(lp3328
(lp3329
I23
aI133
aF5.7999999999999995e-12
aassS'BGC0001398|PhomG'
p3330
(dp3331
S'PF01565'
p3332
(lp3333
(lp3334
I878
aI916
aF2.7000000000000002e-05
aasS'PF01432'
p3335
(lp3336
(lp3337
I420
aI681
aF8.400000000000001e-46
aa(lp3338
I228
aI413
aF1.6999999999999998e-34
aassS'BGC0001398|PhomF'
p3339
(dp3340
S'PF13561'
p3341
(lp3342
(lp3343
I26
aI284
aF4.599999999999999e-40
aassS'BGC0000597|SSTG_01182'
p3344
(dp3345
S'PF06723'
p3346
(lp3347
(lp3348
I11
aI333
aF1.7999999999999998e-106
aassS'BGC0001398|PhomD'
p3349
(dp3350
S'PF00172'
p3351
(lp3352
(lp3353
I13
aI48
aF1.6e-08
aassS'BGC0001398|PhomC'
p3354
(dp3355
S'PF07883'
p3356
(lp3357
(lp3358
I91
aI151
aF9e-08
aassS'BGC0000604|tpdC'
p3359
(dp3360
S'PF14028'
p3361
(lp3362
(lp3363
I7
aI291
aF1.3e-44
aassS'BGC0001307|cptB1'
p3364
(dp3365
S'PF05402'
p3366
(lp3367
(lp3368
I16
aI81
aF1.3999999999999999e-14
aassS'BGC0000607|tclJ'
p3369
(dp3370
S'PF02624'
p3371
(lp3372
(lp3373
I183
aI525
aF8.8e-47
aassS'BGC0000614|ACN52303.1'
p3374
(dp3375
S'PF02310'
p3376
(lp3377
(lp3378
I18
aI138
aF2.9e-10
aasS'PF04055'
p3379
(lp3380
(lp3381
I251
aI421
aF8.5e-13
aassS'BGC0000544|pspX'
p3382
(dp3383
S'PF04542'
p3384
(lp3385
(lp3386
I2
aI57
aF9.1e-13
aasS'PF08281'
p3387
(lp3388
(lp3389
I90
aI141
aF8.9e-13
aassS'BGC0000495|ACR33048.1'
p3390
(dp3391
S'PF04672'
p3392
(lp3393
(lp3394
I5
aI254
aF1.6000000000000002e-84
aassS'BGC0000597|SSTG_01178'
p3395
(dp3396
S'PF01614'
p3397
(lp3398
(lp3399
I124
aI248
aF6.900000000000001e-35
aasS'PF09339'
p3400
(lp3401
(lp3402
I7
aI56
aF7.400000000000001e-13
aassS'BGC0001391|thsM2'
p3403
(dp3404
S'PF13575'
p3405
(lp3406
(lp3407
I109
aI477
aF1.5e-89
aasS'PF05147'
p3408
(lp3409
(lp3410
I591
aI920
aF3.2e-58
aassS'BGC0001222|aciA'
p3411
(dp3412
S'PF12173'
p3413
(lp3414
(lp3415
I1
aI91
aF6.8e-50
aassS'BGC0000504|clyLs'
p3416
(dp3417
S'PF16934'
p3418
(lp3419
(lp3420
I8
aI60
aF1.7000000000000002e-22
aassS'BGC0001391|thsM1'
p3421
(dp3422
S'PF13575'
p3423
(lp3424
(lp3425
I171
aI541
aF4e-90
aasS'PF05147'
p3426
(lp3427
(lp3428
I667
aI1003
aF3.1e-55
aassS'BGC0000487|cclH'
p3429
(dp3430
S'PF02687'
p3431
(lp3432
(lp3433
I306
aI392
aF6e-12
aasS'PF12704'
p3434
(lp3435
(lp3436
I21
aI239
aF7.8e-23
aassS'BGC0000481|TeryDRAFT_3512'
p3437
(dp3438
S'PF02624'
p3439
(lp3440
(lp3441
I402
aI732
aF2.1e-96
aassS'BGC0000481|TeryDRAFT_3510'
p3442
(dp3443
S'PF04255'
p3444
(lp3445
(lp3446
I46
aI101
aF1.8000000000000003e-17
aasS'PF03693'
p3447
(lp3448
(lp3449
I3
aI39
aF9.800000000000001e-06
aassS'BGC0000487|cclF'
p3450
(dp3451
S'PF13437'
p3452
(lp3453
(lp3454
I212
aI292
aF3.0000000000000004e-05
aassS'BGC0000487|cclG'
p3455
(dp3456
S'PF00005'
p3457
(lp3458
(lp3459
I21
aI169
aF1.7000000000000002e-32
aassS'BGC0000572|BTJ_874'
p3460
(dp3461
S'PF13471'
p3462
(lp3463
(lp3464
I116
aI225
aF5.999999999999999e-24
aassS'BGC0000572|BTJ_875'
p3465
(dp3466
S'PF00733'
p3467
(lp3468
(lp3469
I162
aI498
aF5.400000000000001e-15
aassS'BGC0000607|AIU53932.1'
p3470
(dp3471
S'PF13333'
p3472
(lp3473
(lp3474
I137
aI191
aF9e-07
aasS'PF00665'
p3475
(lp3476
(lp3477
I36
aI144
aF5.599999999999999e-20
aassS'BGC0000487|cclC'
p3478
(dp3479
S'PF01944'
p3480
(lp3481
(lp3482
I29
aI184
aF2.7e-11
aassS'BGC0000469|AFV25495.1'
p3483
(dp3484
S'PF02597'
p3485
(lp3486
(lp3487
I5
aI90
aF1.4e-18
aassS'BGC0000497|bhtA_alpha'
p3488
(dp3489
S'PF14867'
p3490
(lp3491
(lp3492
I39
aI60
aF3.7000000000000004e-13
aassS'BGC0000487|cclT'
p3493
(dp3494
S'PF00005'
p3495
(lp3496
(lp3497
I21
aI157
aF2.2000000000000002e-15
aassS'BGC0000530|SMU76_03185'
p3498
(dp3499
S'PF00082'
p3500
(lp3501
(lp3502
I130
aI435
aF2.9e-41
aassS'BGC0000597|SSTG_01177'
p3503
(dp3504
S'PF08450'
p3505
(lp3506
(lp3507
I20
aI257
aF6.2e-79
aassS'BGC0000602|ywhN'
p3508
(dp3509
S'PF00675'
p3510
(lp3511
(lp3512
I62
aI154
aF3.8e-13
aassS'BGC0000531|mutB'
p3513
(dp3514
S'PF14028'
p3515
(lp3516
(lp3517
I724
aI970
aF1.1000000000000001e-16
aasS'PF04738'
p3518
(lp3519
(lp3520
I38
aI662
aF1.8e-118
aassS'BGC0000607|AIU53936.1'
p3521
(dp3522
S'PF08708'
p3523
(lp3524
(lp3525
I272
aI328
aF3.0000000000000004e-05
aassS'BGC0000503|cinorf8'
p3526
(dp3527
S'PF13380'
p3528
(lp3529
(lp3530
I18
aI131
aF6.5e-37
aassS'BGC0001311|RUMFLAFD1_RS0111210'
p3531
(dp3532
S'PF13575'
p3533
(lp3534
(lp3535
I124
aI495
aF2.9999999999999996e-76
aasS'PF05147'
p3536
(lp3537
(lp3538
I613
aI952
aF8.400000000000001e-63
aassS'BGC0000495|ACR33042.1'
p3539
(dp3540
S'PF02775'
p3541
(lp3542
(lp3543
I389
aI544
aF5.7e-26
aasS'PF00205'
p3544
(lp3545
(lp3546
I200
aI329
aF3.5000000000000004e-26
aasS'PF02776'
p3547
(lp3548
(lp3549
I5
aI173
aF3e-45
aassS'BGC0000526|tnp'
p3550
(dp3551
S'PF00872'
p3552
(lp3553
(lp3554
I7
aI370
aF1.1999999999999999e-145
aassS'BGC0000471|Osc7112_3651'
p3555
(dp3556
S'PF02624'
p3557
(lp3558
(lp3559
I408
aI739
aF3.3e-97
aassS'BGC0000557|scnR'
p3560
(dp3561
S'PF00072'
p3562
(lp3563
(lp3564
I12
aI121
aF1.1000000000000001e-23
aasS'PF00486'
p3565
(lp3566
(lp3567
I154
aI230
aF7.2e-18
aassS'BGC0000471|Osc7112_3653'
p3568
(dp3569
S'PF08241'
p3570
(lp3571
(lp3572
I110
aI208
aF4.500000000000001e-18
aassS'BGC0000557|scnT'
p3573
(dp3574
S'PF00005'
p3575
(lp3576
(lp3577
I479
aI614
aF1.1e-21
aasS'PF03412'
p3578
(lp3579
(lp3580
I2
aI133
aF1.1000000000000002e-37
aasS'PF00664'
p3581
(lp3582
(lp3583
I164
aI419
aF5.8e-16
aassS'BGC0000513|ramA'
p3584
(dp3585
S'PF00005'
p3586
(lp3587
(lp3588
I338
aI479
aF2.5e-19
aasS'PF00664'
p3589
(lp3590
(lp3591
I22
aI282
aF2.3e-16
aassS'BGC0000513|ramB'
p3592
(dp3593
S'PF00005'
p3594
(lp3595
(lp3596
I347
aI495
aF2.7999999999999998e-24
aassS'BGC0000495|ACR33036.1'
p3597
(dp3598
S'PF00004'
p3599
(lp3600
(lp3601
I275
aI402
aF9.3e-28
aassS'BGC0000557|scnK'
p3602
(dp3603
S'PF02518'
p3604
(lp3605
(lp3606
I345
aI447
aF2e-12
aasS'PF00512'
p3607
(lp3608
(lp3609
I227
aI291
aF1e-08
aassS'BGC0000557|scnM'
p3610
(dp3611
S'PF13575'
p3612
(lp3613
(lp3614
I92
aI463
aF2.1e-60
aasS'PF05147'
p3615
(lp3616
(lp3617
I580
aI920
aF1.6999999999999997e-67
aassS'BGC0000609|nocF'
p3618
(dp3619
S'PF00881'
p3620
(lp3621
(lp3622
I95
aI229
aF3e-06
aassS'BGC0000557|scnA'
p3623
(dp3624
S'PF04604'
p3625
(lp3626
(lp3627
I1
aI50
aF9.9e-27
aassS'BGC0000599|AED99786.1'
p3628
(dp3629
S'PF03572'
p3630
(lp3631
(lp3632
I203
aI372
aF1e-21
aassS'BGC0000607|AIU53930.1'
p3633
(dp3634
S'PF00665'
p3635
(lp3636
(lp3637
I125
aI255
aF1e-15
aasS'PF13518'
p3638
(lp3639
(lp3640
I11
aI49
aF1.1000000000000001e-05
aassS'BGC0000539|nukE'
p3641
(dp3642
S'PF12730'
p3643
(lp3644
(lp3645
I5
aI179
aF1.8e-14
aassS'BGC0000557|scnF'
p3646
(dp3647
S'PF00005'
p3648
(lp3649
(lp3650
I25
aI161
aF3.1e-28
aassS'BGC0000557|scnG'
p3651
(dp3652
S'PF12730'
p3653
(lp3654
(lp3655
I9
aI175
aF2.2000000000000002e-10
aassS'BGC0001173|BAT_RS01150'
p3656
(dp3657
S'PF02624'
p3658
(lp3659
(lp3660
I65
aI404
aF8.4e-65
aassS'BGC0001155|pbtC'
p3661
(dp3662
S'PF14028'
p3663
(lp3664
(lp3665
I7
aI282
aF2.1e-47
aassS'BGC0001155|pbtB'
p3666
(dp3667
S'PF04738'
p3668
(lp3669
(lp3670
I137
aI758
aF8.5e-47
aassS'BGC0001155|pbtE'
p3671
(dp3672
S'PF00881'
p3673
(lp3674
(lp3675
I259
aI423
aF2.7e-07
aassS'BGC0001155|pbtD'
p3676
(dp3677
S'PF14028'
p3678
(lp3679
(lp3680
I3
aI317
aF1.2e-33
aassS'BGC0001155|pbtG'
p3681
(dp3682
S'PF02624'
p3683
(lp3684
(lp3685
I206
aI548
aF1.7e-84
aassS'BGC0000543|pepP'
p3686
(dp3687
S'PF00082'
p3688
(lp3689
(lp3690
I19
aI247
aF3.7e-12
aassS'BGC0000523|lasW'
p3691
(dp3692
S'PF12698'
p3693
(lp3694
(lp3695
I22
aI386
aF6.2000000000000005e-30
aassS'BGC0000543|pepT'
p3696
(dp3697
S'PF00005'
p3698
(lp3699
(lp3700
I348
aI498
aF7e-33
aasS'PF00664'
p3701
(lp3702
(lp3703
I21
aI288
aF7.8e-47
aassS'BGC0001171|LMOf2365_1116'
p3704
(dp3705
S'PF00881'
p3706
(lp3707
(lp3708
I107
aI284
aF6.400000000000001e-13
aassS'BGC0001155|pbtO'
p3709
(dp3710
S'PF00067'
p3711
(lp3712
(lp3713
I224
aI272
aF1.1e-07
aa(lp3714
I280
aI308
aF1.4e-05
aassS'BGC0001155|pbtR'
p3715
(dp3716
S'PF00440'
p3717
(lp3718
(lp3719
I14
aI57
aF1.4e-15
aassS'BGC0000608|ADH93700.1'
p3720
(dp3721
S'PF04055'
p3722
(lp3723
(lp3724
I6
aI185
aF1e-14
aassS'BGC0000543|pepA'
p3725
(dp3726
S'PF08130'
p3727
(lp3728
(lp3729
I1
aI60
aF3.4e-41
aassS'BGC0000582|ADR72966.1'
p3730
(dp3731
S'PF13649'
p3732
(lp3733
(lp3734
I43
aI136
aF5.3e-19
aassS'BGC0000543|pepC'
p3735
(dp3736
S'PF05147'
p3737
(lp3738
(lp3739
I31
aI392
aF2e-81
aassS'BGC0000526|mcdA_'
p3740
(dp3741
S'PF04604'
p3742
(lp3743
(lp3744
I1
aI50
aF4.2e-25
aassS'BGC0000628|HMPREF0514_11740'
p3745
(dp3746
S'PF00589'
p3747
(lp3748
(lp3749
I22
aI187
aF5.900000000000001e-18
aassS'BGC0001170|CLOSPO_RS15775'
p3750
(dp3751
S'PF02517'
p3752
(lp3753
(lp3754
I118
aI206
aF9e-10
aassS'BGC0000559|spaB'
p3755
(dp3756
S'PF14028'
p3757
(lp3758
(lp3759
I756
aI1013
aF7.4e-30
aasS'PF04738'
p3760
(lp3761
(lp3762
I40
aI682
aF1.7e-126
aassS'BGC0001170|CLOSPO_RS15770'
p3763
(dp3764
S'PF02624'
p3765
(lp3766
(lp3767
I69
aI421
aF3.6e-51
aassS'BGC0000469|AFV25492.1'
p3768
(dp3769
S'PF12706'
p3770
(lp3771
(lp3772
I30
aI218
aF1.1e-22
aassS'BGC0000587|mcmA__truncated_'
p3773
(dp3774
S'PF17508'
p3775
(lp3776
(lp3777
I1
aI70
aF3.3e-13
aassS'BGC0001392|Cpin_5330'
p3778
(dp3779
S'PF02321'
p3780
(lp3781
(lp3782
I241
aI425
aF2.2999999999999996e-29
aa(lp3783
I38
aI222
aF6.3e-20
aassS'BGC0000573|Caul_5189'
p3784
(dp3785
S'PF00593'
p3786
(lp3787
(lp3788
I450
aI975
aF1.3e-39
aasS'PF07715'
p3789
(lp3790
(lp3791
I139
aI257
aF1.3e-16
aassS'BGC0000559|yvan'
p3792
(dp3793
S'PF13560'
p3794
(lp3795
(lp3796
I4
aI59
aF3.4999999999999997e-16
aassS'BGC0000627|AFLA_095010'
p3797
(dp3798
S'PF03572'
p3799
(lp3800
(lp3801
I134
aI336
aF3.4e-10
aassS'BGC0000570|Astex_2229'
p3802
(dp3803
S'PF13471'
p3804
(lp3805
(lp3806
I92
aI207
aF1.1e-25
aassS'BGC0000611|sio4'
p3807
(dp3808
S'PF00005'
p3809
(lp3810
(lp3811
I40
aI186
aF7.9e-30
aassS'BGC0000593|mdnA'
p3812
(dp3813
S'PF12559'
p3814
(lp3815
(lp3816
I6
aI48
aF1.7e-07
aassS'BGC0000570|Astex_2227'
p3817
(dp3818
S'PF00392'
p3819
(lp3820
(lp3821
I9
aI68
aF3.2e-06
aassS'BGC0000549|slvP'
p3822
(dp3823
S'PF00082'
p3824
(lp3825
(lp3826
I119
aI416
aF2.7999999999999997e-41
aassS'BGC0000502|cerA3'
p3827
(dp3828
S'PF16934'
p3829
(lp3830
(lp3831
I30
aI76
aF7.2e-15
aassS'BGC0000540|paenC'
p3832
(dp3833
S'PF05147'
p3834
(lp3835
(lp3836
I45
aI421
aF4.099999999999999e-49
aassS'BGC0000502|cerA1'
p3837
(dp3838
S'PF16934'
p3839
(lp3840
(lp3841
I30
aI76
aF7.900000000000001e-15
aassS'BGC0001407|BCSJ1_09308'
p3842
(dp3843
S'PF05147'
p3844
(lp3845
(lp3846
I11
aI276
aF4.5000000000000006e-33
aassS'BGC0000502|cerA7'
p3847
(dp3848
S'PF16934'
p3849
(lp3850
(lp3851
I30
aI76
aF1.2e-15
aassS'BGC0000502|cerA4'
p3852
(dp3853
S'PF16934'
p3854
(lp3855
(lp3856
I30
aI76
aF7.900000000000001e-15
aassS'BGC0001146|ctmD'
p3857
(dp3858
S'PF02624'
p3859
(lp3860
(lp3861
I259
aI605
aF2.9e-89
aassS'BGC0000577|SJA_P1-00950'
p3862
(dp3863
S'PF13471'
p3864
(lp3865
(lp3866
I109
aI215
aF4.6e-18
aassS'BGC0001173|BAT_RS01145'
p3867
(dp3868
S'PF00881'
p3869
(lp3870
(lp3871
I90
aI251
aF8.800000000000001e-13
aassS'BGC0000565|BAE46925.1'
p3872
(dp3873
S'PF13340'
p3874
(lp3875
(lp3876
I11
aI87
aF1.9e-21
aassS'BGC0000622|ABS44969.1'
p3877
(dp3878
S'PF00462'
p3879
(lp3880
(lp3881
I5
aI54
aF1.4e-10
aassS'BGC0001407|BCSJ1_09303'
p3882
(dp3883
S'PF03358'
p3884
(lp3885
(lp3886
I4
aI159
aF5.5e-20
aassS'BGC0000540|paenP'
p3887
(dp3888
S'PF00082'
p3889
(lp3890
(lp3891
I41
aI275
aF2e-21
aassS'BGC0000549|slvB'
p3892
(dp3893
S'PF14028'
p3894
(lp3895
(lp3896
I732
aI890
aF2.6000000000000004e-18
aasS'PF04738'
p3897
(lp3898
(lp3899
I37
aI656
aF6.5e-89
aassS'BGC0000549|slvC'
p3900
(dp3901
S'PF05147'
p3902
(lp3903
(lp3904
I30
aI399
aF2.6e-61
aassS'BGC0000549|slvD'
p3905
(dp3906
S'PF02052'
p3907
(lp3908
(lp3909
I6
aI35
aF7.1e-07
aassS'BGC0000540|paenT'
p3910
(dp3911
S'PF00005'
p3912
(lp3913
(lp3914
I371
aI521
aF1.1000000000000001e-32
aasS'PF00664'
p3915
(lp3916
(lp3917
I40
aI305
aF8.699999999999998e-44
aassS'BGC0000549|slvF'
p3918
(dp3919
S'PF00005'
p3920
(lp3921
(lp3922
I18
aI152
aF3.9e-26
aassS'BGC0000591|BAA81784.1'
p3923
(dp3924
S'PF08443'
p3925
(lp3926
(lp3927
I40
aI233
aF1.2e-07
aassS'BGC0000598|AFS60636.1'
p3928
(dp3929
S'PF13610'
p3930
(lp3931
(lp3932
I73
aI207
aF6.3e-48
aassS'BGC0000528|clvK'
p3933
(dp3934
S'PF07730'
p3935
(lp3936
(lp3937
I178
aI235
aF1.7e-13
aassS'BGC0001210|bpmyx0001_45470'
p3938
(dp3939
S'PF13575'
p3940
(lp3941
(lp3942
I217
aI593
aF4e-115
aasS'PF05147'
p3943
(lp3944
(lp3945
I716
aI1056
aF7.9e-63
aassS'BGC0000583|SGR_6361'
p3946
(dp3947
S'PF00005'
p3948
(lp3949
(lp3950
I23
aI164
aF1.9e-20
aassS'BGC0001176|LP52_05070'
p3951
(dp3952
S'PF05402'
p3953
(lp3954
(lp3955
I16
aI79
aF1.6e-12
aassS'BGC0000627|AFLA_095060'
p3956
(dp3957
S'PF00264'
p3958
(lp3959
(lp3960
I112
aI304
aF8.699999999999999e-39
aassS'BGC0000495|garK'
p3961
(dp3962
S'PF07730'
p3963
(lp3964
(lp3965
I173
aI236
aF2e-12
aassS'BGC0001307|ALT06556.1'
p3966
(dp3967
S'PF03995'
p3968
(lp3969
(lp3970
I26
aI97
aF3.6e-16
aassS'BGC0000495|garH'
p3971
(dp3972
S'PF02687'
p3973
(lp3974
(lp3975
I714
aI805
aF1.5e-12
aa(lp3976
I276
aI366
aF5.3e-08
aassS'BGC0000495|garO'
p3977
(dp3978
S'PF00296'
p3979
(lp3980
(lp3981
I15
aI301
aF2e-37
aassS'BGC0000495|garM'
p3982
(dp3983
S'PF13575'
p3984
(lp3985
(lp3986
I207
aI579
aF4.8e-115
aasS'PF05147'
p3987
(lp3988
(lp3989
I701
aI1043
aF1e-52
aassS'BGC0000495|garR'
p3990
(dp3991
S'PF00196'
p3992
(lp3993
(lp3994
I158
aI213
aF5.7e-16
aasS'PF00072'
p3995
(lp3996
(lp3997
I8
aI122
aF1.4e-25
aassS'BGC0000626|thuE'
p3998
(dp3999
S'PF12730'
p4000
(lp4001
(lp4002
I9
aI180
aF2.1e-09
aassS'BGC0000526|mcdA1'
p4003
(dp4004
S'PF04604'
p4005
(lp4006
(lp4007
I1
aI53
aF2.6e-23
aassS'BGC0000599|AED99780.1'
p4008
(dp4009
S'PF13346'
p4010
(lp4011
(lp4012
I7
aI207
aF9.6e-16
aassS'BGC0000611|sioT'
p4013
(dp4014
S'PF02310'
p4015
(lp4016
(lp4017
I17
aI138
aF4.2e-09
aasS'PF04055'
p4018
(lp4019
(lp4020
I243
aI413
aF5.2000000000000005e-12
aassS'BGC0000495|garT'
p4021
(dp4022
S'PF00005'
p4023
(lp4024
(lp4025
I43
aI188
aF1.7e-30
aassS'BGC0001311|RUMFLAFD1_RS0111230'
p4026
(dp4027
S'PF00005'
p4028
(lp4029
(lp4030
I20
aI161
aF1.8e-28
aassS'BGC0001226|stcH'
p4031
(dp4032
S'PF01061'
p4033
(lp4034
(lp4035
I3
aI207
aF7.3e-30
aassS'BGC0000547|sivR'
p4036
(dp4037
S'PF00072'
p4038
(lp4039
(lp4040
I12
aI117
aF3.5e-23
aasS'PF00486'
p4041
(lp4042
(lp4043
I155
aI230
aF3.1e-19
aassS'BGC0001226|stcL'
p4044
(dp4045
S'PF05147'
p4046
(lp4047
(lp4048
I673
aI1016
aF2.6e-39
aasS'PF00069'
p4049
(lp4050
(lp4051
I230
aI473
aF1.9e-18
aassS'BGC0000559|spaR'
p4052
(dp4053
S'PF00072'
p4054
(lp4055
(lp4056
I4
aI112
aF1.8e-21
aasS'PF00486'
p4057
(lp4058
(lp4059
I146
aI218
aF4.500000000000001e-18
aassS'BGC0000550|AFB74481.1'
p4060
(dp4061
S'PF04604'
p4062
(lp4063
(lp4064
I1
aI52
aF8.8e-24
aassS'BGC0000495|ACR33044.1'
p4065
(dp4066
S'PF01263'
p4067
(lp4068
(lp4069
I57
aI391
aF3.8e-92
aassS'BGC0000573|Caul_5192'
p4070
(dp4071
S'PF13471'
p4072
(lp4073
(lp4074
I106
aI217
aF1.4e-25
aassS'BGC0000583|SGR_6366'
p4075
(dp4076
S'PF13191'
p4077
(lp4078
(lp4079
I302
aI490
aF1.7e-11
aasS'PF03704'
p4080
(lp4081
(lp4082
I103
aI248
aF3.7e-43
aassS'BGC0001356|PDENDC454_19518'
p4083
(dp4084
S'PF05402'
p4085
(lp4086
(lp4087
I27
aI93
aF3.1000000000000004e-13
aassS'BGC0000469|AFV25471.1'
p4088
(dp4089
S'PF00166'
p4090
(lp4091
(lp4092
I11
aI97
aF4.0999999999999994e-19
aassS'BGC0000495|ACR33046.1'
p4093
(dp4094
S'PF02653'
p4095
(lp4096
(lp4097
I69
aI335
aF9.499999999999999e-38
aassS'BGC0001226|stcT'
p4098
(dp4099
S'PF00005'
p4100
(lp4101
(lp4102
I2
aI137
aF1.3000000000000001e-30
aassS'BGC0000591|BAA81782.1'
p4103
(dp4104
S'PF00497'
p4105
(lp4106
(lp4107
I20
aI227
aF5.5e-20
aassS'BGC0000481|TeryDRAFT_3503'
p4108
(dp4109
S'PF00082'
p4110
(lp4111
(lp4112
I57
aI301
aF5.999999999999999e-21
aassS'BGC0000549|slvR'
p4113
(dp4114
S'PF00072'
p4115
(lp4116
(lp4117
I4
aI112
aF2.2000000000000002e-23
aasS'PF00486'
p4118
(lp4119
(lp4120
I152
aI225
aF7.3e-18
aassS'BGC0000546|SSHG_03592'
p4121
(dp4122
S'PF00196'
p4123
(lp4124
(lp4125
I87
aI137
aF2.1000000000000001e-13
aassS'BGC0000546|SSHG_03591'
p4126
(dp4127
S'PF00005'
p4128
(lp4129
(lp4130
I420
aI562
aF1.2e-22
aassS'BGC0000546|SSHG_03590'
p4131
(dp4132
S'PF00005'
p4133
(lp4134
(lp4135
I334
aI479
aF3.1999999999999998e-21
aasS'PF00664'
p4136
(lp4137
(lp4138
I15
aI268
aF1.9e-13
aassS'BGC0000472|acyA'
p4139
(dp4140
S'PF00082'
p4141
(lp4142
(lp4143
I23
aI265
aF1.3999999999999997e-39
aassS'BGC0000507|eciP'
p4144
(dp4145
S'PF00082'
p4146
(lp4147
(lp4148
I23
aI264
aF1.2e-16
aassS'BGC0000624|ABQ84443.1'
p4149
(dp4150
S'PF10439'
p4151
(lp4152
(lp4153
I7
aI64
aF7.5e-14
aassS'BGC0001391|thsF'
p4154
(dp4155
S'PF00005'
p4156
(lp4157
(lp4158
I25
aI157
aF6.099999999999999e-29
aassS'BGC0000472|acyG'
p4159
(dp4160
S'PF00082'
p4161
(lp4162
(lp4163
I23
aI314
aF1.6000000000000002e-18
aassS'BGC0000561|BAJ10694.1'
p4164
(dp4165
S'PF00085'
p4166
(lp4167
(lp4168
I69
aI159
aF2.5e-07
aassS'BGC0000517|BH0455'
p4169
(dp4170
S'PF13575'
p4171
(lp4172
(lp4173
I198
aI576
aF4.099999999999999e-118
aasS'PF05147'
p4174
(lp4175
(lp4176
I698
aI1042
aF3.9e-88
aassS'BGC0000509|elxO'
p4177
(dp4178
S'PF13561'
p4179
(lp4180
(lp4181
I12
aI245
aF2.4e-62
aassS'BGC0000614|ACN52305.1'
p4182
(dp4183
S'PF11066'
p4184
(lp4185
(lp4186
I8
aI122
aF1.9e-10
aassS'BGC0000507|eciO'
p4187
(dp4188
S'PF13561'
p4189
(lp4190
(lp4191
I12
aI245
aF1.4e-55
aassS'BGC0000507|eciB'
p4192
(dp4193
S'PF14028'
p4194
(lp4195
(lp4196
I722
aI962
aF2.2000000000000002e-16
aasS'PF04738'
p4197
(lp4198
(lp4199
I50
aI484
aF1.3999999999999998e-41
aa(lp4200
I535
aI659
aF4e-15
aassS'BGC0000507|eciC'
p4201
(dp4202
S'PF05147'
p4203
(lp4204
(lp4205
I31
aI395
aF1.7e-79
aassS'BGC0000602|ywhQ'
p4206
(dp4207
S'PF00005'
p4208
(lp4209
(lp4210
I20
aI166
aF1.1e-20
aassS'BGC0000507|eciA'
p4211
(dp4212
S'PF08130'
p4213
(lp4214
(lp4215
I1
aI56
aF1.6e-36
aassS'BGC0000594|ACC54553.1'
p4216
(dp4217
S'PF13561'
p4218
(lp4219
(lp4220
I14
aI243
aF8e-23
aassS'BGC0001364|G339_RS0112020'
p4221
(dp4222
S'PF07862'
p4223
(lp4224
(lp4225
I1
aI48
aF6.8e-08
aassS'BGC0000532|mutA'
p4226
(dp4227
S'PF04604'
p4228
(lp4229
(lp4230
I1
aI53
aF8.9e-27
aassS'BGC0000502|cerM'
p4231
(dp4232
S'PF13575'
p4233
(lp4234
(lp4235
I215
aI585
aF2.4e-109
aasS'PF05147'
p4236
(lp4237
(lp4238
I703
aI1045
aF4.4e-73
aassS'BGC0001364|G339_RS0112025'
p4239
(dp4240
S'PF13575'
p4241
(lp4242
(lp4243
I239
aI613
aF9.099999999999999e-66
aasS'PF05147'
p4244
(lp4245
(lp4246
I717
aI1064
aF2.7000000000000003e-59
aassS'BGC0000491|gaaT'
p4247
(dp4248
S'PF00005'
p4249
(lp4250
(lp4251
I21
aI149
aF4.799999999999999e-21
aassS'BGC0000610|nos5'
p4252
(dp4253
S'PF04560'
p4254
(lp4255
(lp4256
I1069
aI1143
aF4.2e-27
aasS'PF04561'
p4257
(lp4258
(lp4259
I189
aI385
aF1.3000000000000001e-30
aasS'PF00562'
p4260
(lp4261
(lp4262
I650
aI1067
aF2.4e-156
aasS'PF10385'
p4263
(lp4264
(lp4265
I522
aI588
aF3.6e-26
aasS'PF04565'
p4266
(lp4267
(lp4268
I444
aI512
aF8.199999999999998e-29
aassS'BGC0000553|SSGG_RS0133190'
p4269
(dp4270
S'PF00069'
p4271
(lp4272
(lp4273
I244
aI437
aF8.9e-14
aassS'BGC0000534|mukA3'
p4274
(dp4275
S'PF04604'
p4276
(lp4277
(lp4278
I1
aI50
aF1.3e-26
aassS'BGC0000532|mutM'
p4279
(dp4280
S'PF13575'
p4281
(lp4282
(lp4283
I106
aI436
aF9e-52
aasS'PF05147'
p4284
(lp4285
(lp4286
I562
aI889
aF2.5e-60
aassS'BGC0001391|thsA1'
p4287
(dp4288
S'PF14867'
p4289
(lp4290
(lp4291
I44
aI70
aF1.5000000000000002e-08
aassS'BGC0000610|nos7'
p4292
(dp4293
S'PF00466'
p4294
(lp4295
(lp4296
I1
aI98
aF1.3999999999999999e-24
aassS'BGC0000474|mcaD'
p4297
(dp4298
S'PF02624'
p4299
(lp4300
(lp4301
I407
aI739
aF9.7e-97
aassS'BGC0000553|SSGG_RS0133195'
p4302
(dp4303
S'PF00664'
p4304
(lp4305
(lp4306
I30
aI290
aF9.199999999999999e-14
aassS'BGC0000489|as-48'
p4307
(dp4308
S'PF09221'
p4309
(lp4310
(lp4311
I39
aI105
aF9.2e-15
aassS'BGC0000581|mcjB'
p4312
(dp4313
S'PF13471'
p4314
(lp4315
(lp4316
I142
aI206
aF2.7000000000000004e-17
aassS'BGC0000527|mrsR2'
p4317
(dp4318
S'PF00072'
p4319
(lp4320
(lp4321
I8
aI117
aF4.3e-26
aasS'PF00486'
p4322
(lp4323
(lp4324
I155
aI230
aF7.6e-25
aassS'BGC0000527|mrsR1'
p4325
(dp4326
S'PF00486'
p4327
(lp4328
(lp4329
I126
aI195
aF3.3999999999999996e-12
aassS'BGC0000549|slvT'
p4330
(dp4331
S'PF00005'
p4332
(lp4333
(lp4334
I369
aI522
aF1.9e-33
aassS'BGC0000537|nsuA'
p4335
(dp4336
S'PF02052'
p4337
(lp4338
(lp4339
I2
aI38
aF8.599999999999999e-11
aassS'BGC0000556|srtF'
p4340
(dp4341
S'PF00005'
p4342
(lp4343
(lp4344
I17
aI154
aF5e-33
aassS'BGC0000592|mdnE'
p4345
(dp4346
S'PF00005'
p4347
(lp4348
(lp4349
I401
aI538
aF2.7e-20
aasS'PF06472'
p4350
(lp4351
(lp4352
I58
aI310
aF2.3999999999999998e-39
aassS'BGC0000469|botRMT2'
p4353
(dp4354
S'PF04055'
p4355
(lp4356
(lp4357
I274
aI433
aF1.3e-09
aassS'BGC0000537|nsuF'
p4358
(dp4359
S'PF00005'
p4360
(lp4361
(lp4362
I18
aI157
aF3.3e-26
aassS'BGC0000521|lctM'
p4363
(dp4364
S'PF13575'
p4365
(lp4366
(lp4367
I87
aI459
aF9.599999999999999e-71
aasS'PF05147'
p4368
(lp4369
(lp4370
I576
aI912
aF1.4999999999999998e-76
aassS'BGC0000502|cerA2'
p4371
(dp4372
S'PF16934'
p4373
(lp4374
(lp4375
I30
aI76
aF7.900000000000001e-15
aassS'BGC0000622|ABS44971.1'
p4376
(dp4377
S'PF04545'
p4378
(lp4379
(lp4380
I138
aI185
aF3.1e-10
aassS'BGC0000614|ACN52293.1'
p4381
(dp4382
S'PF04738'
p4383
(lp4384
(lp4385
I778
aI835
aF3.2000000000000005e-09
aa(lp4386
I158
aI444
aF1.8000000000000002e-08
aassS'BGC0000537|nsuK'
p4387
(dp4388
S'PF02518'
p4389
(lp4390
(lp4391
I340
aI444
aF6.7e-12
aasS'PF00512'
p4392
(lp4393
(lp4394
I230
aI289
aF6.6e-09
aassS'BGC0000521|lctF'
p4395
(dp4396
S'PF00005'
p4397
(lp4398
(lp4399
I23
aI163
aF6.700000000000001e-31
aassS'BGC0000556|srtI'
p4400
(dp4401
S'PF11083'
p4402
(lp4403
(lp4404
I1
aI93
aF2.3e-43
aassS'BGC0000624|ABQ84447.1'
p4405
(dp4406
S'PF04397'
p4407
(lp4408
(lp4409
I164
aI256
aF7.7e-14
aasS'PF00072'
p4410
(lp4411
(lp4412
I6
aI134
aF1.3000000000000002e-10
aassS'BGC0000556|srtT'
p4413
(dp4414
S'PF00005'
p4415
(lp4416
(lp4417
I359
aI516
aF1.3000000000000002e-31
aassS'BGC0001148|pgm20'
p4418
(dp4419
S'PF00550'
p4420
(lp4421
(lp4422
I8
aI70
aF1.8e-15
aassS'BGC0000526|ABI30222.1'
p4423
(dp4424
S'PF03432'
p4425
(lp4426
(lp4427
I11
aI250
aF7.299999999999999e-55
aasS'PF11083'
p4428
(lp4429
(lp4430
I516
aI606
aF4.0999999999999997e-35
aassS'BGC0001174|CU7111_1585'
p4431
(dp4432
S'PF02624'
p4433
(lp4434
(lp4435
I84
aI420
aF1.1000000000000001e-70
aassS'BGC0000537|nsuT'
p4436
(dp4437
S'PF00005'
p4438
(lp4439
(lp4440
I367
aI519
aF8.6e-33
aassS'BGC0000556|srtR'
p4441
(dp4442
S'PF00072'
p4443
(lp4444
(lp4445
I4
aI112
aF4.2999999999999994e-23
aasS'PF00486'
p4446
(lp4447
(lp4448
I153
aI225
aF6e-16
aassS'BGC0000601|skfE'
p4449
(dp4450
S'PF00005'
p4451
(lp4452
(lp4453
I20
aI160
aF2.4e-32
aassS'BGC0000601|skfH'
p4454
(dp4455
S'PF13905'
p4456
(lp4457
(lp4458
I30
aI121
aF2.2000000000000002e-08
aassS'BGC0000541|paeB'
p4459
(dp4460
S'PF14028'
p4461
(lp4462
(lp4463
I784
aI1047
aF1.6e-34
aasS'PF04738'
p4464
(lp4465
(lp4466
I53
aI700
aF3.5e-176
aassS'BGC0000616|RBAM_029210'
p4467
(dp4468
S'PF00005'
p4469
(lp4470
(lp4471
I17
aI161
aF2.5e-32
aassS'BGC0000521|lctT'
p4472
(dp4473
S'PF00005'
p4474
(lp4475
(lp4476
I481
aI621
aF5.1e-26
aasS'PF00664'
p4477
(lp4478
(lp4479
I158
aI421
aF2.3e-42
aasS'PF03412'
p4480
(lp4481
(lp4482
I2
aI134
aF2.7999999999999995e-38
aassS'BGC0000509|orfA'
p4483
(dp4484
S'PF12730'
p4485
(lp4486
(lp4487
I8
aI188
aF1.5e-17
aassS'BGC0000624|ABQ84449.1'
p4488
(dp4489
S'PF00005'
p4490
(lp4491
(lp4492
I501
aI651
aF2.3e-31
aasS'PF00664'
p4493
(lp4494
(lp4495
I171
aI439
aF2.1e-59
aasS'PF03412'
p4496
(lp4497
(lp4498
I7
aI141
aF4.9000000000000007e-42
aassS'BGC0000615|tpa10'
p4499
(dp4500
S'PF03764'
p4501
(lp4502
(lp4503
I483
aI606
aF9.6e-46
aasS'PF03144'
p4504
(lp4505
(lp4506
I328
aI395
aF5.9e-16
aasS'PF00009'
p4507
(lp4508
(lp4509
I10
aI283
aF6.799999999999999e-69
aasS'PF14492'
p4510
(lp4511
(lp4512
I408
aI482
aF4e-32
aasS'PF00679'
p4513
(lp4514
(lp4515
I610
aI695
aF1.3000000000000001e-30
aassS'BGC0000615|tpa11'
p4516
(dp4517
S'PF03144'
p4518
(lp4519
(lp4520
I227
aI296
aF3.6e-16
aasS'PF00009'
p4521
(lp4522
(lp4523
I10
aI203
aF1.4999999999999999e-55
aasS'PF03143'
p4524
(lp4525
(lp4526
I302
aI395
aF1.4e-32
aassS'BGC0001173|BAT_RS01165'
p4527
(dp4528
S'PF13599'
p4529
(lp4530
(lp4531
I166
aI225
aF4.5e-10
aa(lp4532
I86
aI152
aF1.6e-06
aassS'BGC0001157|SCAB_56601'
p4533
(dp4534
S'PF09860'
p4535
(lp4536
(lp4537
I121
aI189
aF4.4e-22
aassS'BGC0000534|mukA1'
p4538
(dp4539
S'PF04604'
p4540
(lp4541
(lp4542
I1
aI51
aF3.6000000000000006e-27
aassS'BGC0000550|AFB74479.1'
p4543
(dp4544
S'PF04604'
p4545
(lp4546
(lp4547
I1
aI48
aF2.6e-24
aassS'BGC0000611|sioB'
p4548
(dp4549
S'PF12146'
p4550
(lp4551
(lp4552
I26
aI252
aF1.2e-55
aassS'BGC0000625|tvaI'
p4553
(dp4554
S'PF07812'
p4555
(lp4556
(lp4557
I51
aI168
aF1.3999999999999998e-40
aassS'BGC0000625|tvaH'
p4558
(dp4559
S'PF02624'
p4560
(lp4561
(lp4562
I69
aI413
aF6.499999999999999e-65
aassS'BGC0000625|tvaK'
p4563
(dp4564
S'PF00112'
p4565
(lp4566
(lp4567
I107
aI189
aF6.2e-08
aassS'BGC0000625|tvaJ'
p4568
(dp4569
S'PF05721'
p4570
(lp4571
(lp4572
I64
aI201
aF1.3e-20
aassS'BGC0000612|BC_5091'
p4573
(dp4574
S'PF05721'
p4575
(lp4576
(lp4577
I10
aI199
aF1.3e-28
aassS'BGC0000612|BC_5092'
p4578
(dp4579
S'PF12681'
p4580
(lp4581
(lp4582
I7
aI106
aF7.000000000000001e-09
aassS'BGC0000617|coaB'
p4583
(dp4584
S'PF08951'
p4585
(lp4586
(lp4587
I16
aI85
aF5.7e-05
aassS'BGC0000625|tvaC'
p4588
(dp4589
S'PF01636'
p4590
(lp4591
(lp4592
I115
aI315
aF5.599999999999999e-19
aassS'BGC0000475|patA'
p4593
(dp4594
S'PF00082'
p4595
(lp4596
(lp4597
I16
aI256
aF1.1e-34
aassS'BGC0000540|agrB'
p4598
(dp4599
S'PF04647'
p4600
(lp4601
(lp4602
I2
aI117
aF5e-21
aassS'BGC0000540|agrC'
p4603
(dp4604
S'PF04397'
p4605
(lp4606
(lp4607
I135
aI231
aF5.6e-18
aasS'PF00072'
p4608
(lp4609
(lp4610
I37
aI106
aF1.1000000000000001e-09
aassS'BGC0000625|tvaG'
p4611
(dp4612
S'PF06325'
p4613
(lp4614
(lp4615
I118
aI178
aF2.1000000000000003e-08
aassS'BGC0000513|SACE_4230'
p4616
(dp4617
S'PF00069'
p4618
(lp4619
(lp4620
I237
aI407
aF4.5999999999999996e-11
aassS'BGC0000470|bstE'
p4621
(dp4622
S'PF02624'
p4623
(lp4624
(lp4625
I191
aI416
aF2.4000000000000002e-30
aassS'BGC0000470|bstD'
p4626
(dp4627
S'PF02624'
p4628
(lp4629
(lp4630
I44
aI258
aF8.300000000000002e-08
aassS'BGC0000584|cvaB'
p4631
(dp4632
S'PF00005'
p4633
(lp4634
(lp4635
I139
aI286
aF5.1e-33
aasS'PF00664'
p4636
(lp4637
(lp4638
I5
aI72
aF5.5000000000000004e-09
aassS'BGC0000584|cvaC'
p4639
(dp4640
S'PF17508'
p4641
(lp4642
(lp4643
I1
aI102
aF7.5e-53
aassS'BGC0000500|crnA1'
p4644
(dp4645
S'PF16934'
p4646
(lp4647
(lp4648
I5
aI69
aF2e-12
aassS'BGC0000470|bstC'
p4649
(dp4650
S'PF04055'
p4651
(lp4652
(lp4653
I282
aI440
aF1.5000000000000002e-08
aassS'BGC0000470|bstB'
p4654
(dp4655
S'PF04072'
p4656
(lp4657
(lp4658
I18
aI170
aF9.900000000000001e-18
aassS'BGC0000475|AAY21157.1'
p4659
(dp4660
S'PF03441'
p4661
(lp4662
(lp4663
I280
aI471
aF2.4e-81
aasS'PF00875'
p4664
(lp4665
(lp4666
I6
aI162
aF2.6e-48
aassS'BGC0000470|bstI'
p4667
(dp4668
S'PF00067'
p4669
(lp4670
(lp4671
I288
aI345
aF1.7e-08
aassS'BGC0000503|cinorf10'
p4672
(dp4673
S'PF13649'
p4674
(lp4675
(lp4676
I2
aI93
aF3.1e-06
aassS'BGC0000470|bstK'
p4677
(dp4678
S'PF07690'
p4679
(lp4680
(lp4681
I6
aI242
aF1.3999999999999999e-14
aa(lp4682
I223
aI390
aF1.8000000000000002e-13
aassS'BGC0000470|bstJ'
p4683
(dp4684
S'PF04055'
p4685
(lp4686
(lp4687
I275
aI437
aF6.8e-10
aassS'BGC0000484|gccA'
p4688
(dp4689
S'PF00535'
p4690
(lp4691
(lp4692
I42
aI152
aF9.900000000000001e-16
aassS'BGC0000484|gccB'
p4693
(dp4694
S'PF00005'
p4695
(lp4696
(lp4697
I504
aI638
aF1.7e-18
aasS'PF03412'
p4698
(lp4699
(lp4700
I2
aI135
aF1.2000000000000001e-17
aasS'PF00664'
p4701
(lp4702
(lp4703
I170
aI428
aF2.3e-17
aassS'BGC0000484|gccC'
p4704
(dp4705
S'PF00085'
p4706
(lp4707
(lp4708
I37
aI127
aF2.5e-08
aassS'BGC0000484|gccE'
p4709
(dp4710
S'PF04397'
p4711
(lp4712
(lp4713
I163
aI252
aF2.6000000000000003e-17
aassS'BGC0000625|tvaE'
p4714
(dp4715
S'PF01636'
p4716
(lp4717
(lp4718
I106
aI241
aF5e-05
aassS'BGC0000620|BAM66981.1'
p4719
(dp4720
S'PF00589'
p4721
(lp4722
(lp4723
I177
aI357
aF2.2999999999999996e-21
aassS'BGC0000557|scnA1'
p4724
(dp4725
S'PF04604'
p4726
(lp4727
(lp4728
I1
aI51
aF1.1999999999999998e-23
aassS'BGC0000469|botT'
p4729
(dp4730
S'PF07690'
p4731
(lp4732
(lp4733
I236
aI408
aF8.5e-15
aa(lp4734
I6
aI226
aF1.1000000000000002e-12
aassS'BGC0000592|mdnD'
p4735
(dp4736
S'PF13302'
p4737
(lp4738
(lp4739
I11
aI159
aF2.7e-19
aassS'BGC0000497|bhtF'
p4740
(dp4741
S'PF00005'
p4742
(lp4743
(lp4744
I19
aI148
aF2.1e-24
aassS'BGC0000537|nsuC'
p4745
(dp4746
S'PF05147'
p4747
(lp4748
(lp4749
I34
aI414
aF2.7e-60
aassS'BGC0000589|mcmA'
p4750
(dp4751
S'PF17508'
p4752
(lp4753
(lp4754
I1
aI72
aF5.5e-13
aassS'BGC0001145|H340_11765'
p4755
(dp4756
S'PF14028'
p4757
(lp4758
(lp4759
I8
aI350
aF2.4e-73
aassS'BGC0000589|mcmM'
p4760
(dp4761
S'PF02517'
p4762
(lp4763
(lp4764
I122
aI214
aF2.7999999999999998e-12
aassS'BGC0000497|bhtR'
p4765
(dp4766
S'PF01381'
p4767
(lp4768
(lp4769
I14
aI65
aF5.1e-05
aassS'BGC0000536|niqF'
p4770
(dp4771
S'PF00005'
p4772
(lp4773
(lp4774
I18
aI152
aF1.2e-26
aassS'BGC0001145|H340_11760'
p4775
(dp4776
S'PF14028'
p4777
(lp4778
(lp4779
I18
aI329
aF3.9e-67
aassS'BGC0000495|ACR33050.1'
p4780
(dp4781
S'PF00528'
p4782
(lp4783
(lp4784
I89
aI295
aF4.0999999999999994e-19
aassS'BGC0000569|ptnC'
p4785
(dp4786
S'PF02624'
p4787
(lp4788
(lp4789
I78
aI414
aF3.1000000000000003e-61
aassS'BGC0000569|ptnB'
p4790
(dp4791
S'PF00881'
p4792
(lp4793
(lp4794
I96
aI259
aF6.4e-16
aassS'BGC0000569|ptnG'
p4795
(dp4796
S'PF00005'
p4797
(lp4798
(lp4799
I17
aI152
aF4e-28
aassS'BGC0000569|ptnF'
p4800
(dp4801
S'PF13601'
p4802
(lp4803
(lp4804
I15
aI93
aF1.1e-28
aassS'BGC0000569|ptnK'
p4805
(dp4806
S'PF02517'
p4807
(lp4808
(lp4809
I116
aI200
aF4e-07
aassS'BGC0000523|tnp1516delC'
p4810
(dp4811
S'PF14690'
p4812
(lp4813
(lp4814
I40
aI88
aF1.4e-06
aassS'BGC0000569|ptnI'
p4815
(dp4816
S'PF13599'
p4817
(lp4818
(lp4819
I147
aI221
aF2.1e-11
aassS'BGC0000592|mdnA'
p4820
(dp4821
S'PF12559'
p4822
(lp4823
(lp4824
I6
aI49
aF7.3e-08
aassS'BGC0000498|bovM'
p4825
(dp4826
S'PF13575'
p4827
(lp4828
(lp4829
I103
aI459
aF1.1999999999999999e-57
aasS'PF05147'
p4830
(lp4831
(lp4832
I618
aI831
aF9e-28
aassS'BGC0000526|ABI30234.1'
p4833
(dp4834
S'PF01381'
p4835
(lp4836
(lp4837
I5
aI59
aF7.699999999999999e-11
aassS'BGC0000609|nocS6'
p4838
(dp4839
S'PF01041'
p4840
(lp4841
(lp4842
I7
aI365
aF4e-82
aassS'BGC0000609|nocS4'
p4843
(dp4844
S'PF01408'
p4845
(lp4846
(lp4847
I1
aI113
aF1.8e-23
aassS'BGC0000609|nocS5'
p4848
(dp4849
S'PF03559'
p4850
(lp4851
(lp4852
I263
aI470
aF1.1999999999999998e-69
aa(lp4853
I26
aI191
aF1.3e-66
aa(lp4854
I213
aI247
aF4.500000000000001e-09
aassS'BGC0000609|nocS2'
p4855
(dp4856
S'PF13649'
p4857
(lp4858
(lp4859
I44
aI134
aF7.700000000000001e-13
aassS'BGC0000609|nocS3'
p4860
(dp4861
S'PF13489'
p4862
(lp4863
(lp4864
I108
aI247
aF9.1e-13
aasS'PF08484'
p4865
(lp4866
(lp4867
I253
aI409
aF1e-50
aasS'PF08421'
p4868
(lp4869
(lp4870
I14
aI73
aF1.5000000000000001e-15
aassS'BGC0000609|nocS1'
p4871
(dp4872
S'PF13579'
p4873
(lp4874
(lp4875
I10
aI159
aF1.3999999999999998e-07
aasS'PF00201'
p4876
(lp4877
(lp4878
I215
aI361
aF2.8e-08
aassS'BGC0000606|ltc65'
p4879
(dp4880
S'PF02633'
p4881
(lp4882
(lp4883
I14
aI252
aF5.999999999999999e-39
aassS'BGC0001146|ctmF'
p4884
(dp4885
S'PF14028'
p4886
(lp4887
(lp4888
I18
aI328
aF8.5e-67
aassS'BGC0000626|thuF'
p4889
(dp4890
S'PF00005'
p4891
(lp4892
(lp4893
I21
aI160
aF1.3999999999999998e-29
aassS'BGC0000535|nisT'
p4894
(dp4895
S'PF00005'
p4896
(lp4897
(lp4898
I369
aI523
aF2.5e-39
aassS'BGC0001173|BAT_RS01175'
p4899
(dp4900
S'PF00005'
p4901
(lp4902
(lp4903
I17
aI152
aF3.5e-28
aassS'BGC0000535|nisR'
p4904
(dp4905
S'PF00072'
p4906
(lp4907
(lp4908
I4
aI112
aF6.599999999999999e-28
aasS'PF00486'
p4909
(lp4910
(lp4911
I152
aI225
aF9e-16
aassS'BGC0001173|BAT_RS01170'
p4912
(dp4913
S'PF01061'
p4914
(lp4915
(lp4916
I4
aI206
aF6.799999999999999e-21
aassS'BGC0000558|sunT'
p4917
(dp4918
S'PF00005'
p4919
(lp4920
(lp4921
I502
aI647
aF5.2e-26
aasS'PF00664'
p4922
(lp4923
(lp4924
I170
aI439
aF6.6e-35
aasS'PF03412'
p4925
(lp4926
(lp4927
I9
aI143
aF2.4e-33
aassS'BGC0000542|pabE'
p4928
(dp4929
S'PF12730'
p4930
(lp4931
(lp4932
I4
aI186
aF1.7e-07
aassS'BGC0000587|mchD'
p4933
(dp4934
S'PF02794'
p4935
(lp4936
(lp4937
I23
aI133
aF5.7999999999999995e-12
aassS'BGC0000547|gtfD'
p4938
(dp4939
S'PF01473'
p4940
(lp4941
(lp4942
I1180
aI1199
aF8.1e-05
aa(lp4943
I1500
aI1518
aF0.00047
aa(lp4944
I1378
aI1395
aF0.00068
aa(lp4945
I1313
aI1332
aF0.04
aa(lp4946
I1334
aI1350
aF0.22
aasS'PF02324'
p4947
(lp4948
(lp4949
I364
aI1162
aF0.0
aassS'BGC0000542|pabF'
p4950
(dp4951
S'PF00005'
p4952
(lp4953
(lp4954
I21
aI166
aF1e-30
aassS'BGC0000587|mchA'
p4955
(dp4956
S'PF06722'
p4957
(lp4958
(lp4959
I164
aI259
aF2.9999999999999997e-29
aasS'PF00201'
p4960
(lp4961
(lp4962
I253
aI328
aF3.2e-06
aassS'BGC0000515|sunA'
p4963
(dp4964
S'PF02052'
p4965
(lp4966
(lp4967
I5
aI35
aF1.2e-05
aassS'BGC0000542|pabC'
p4968
(dp4969
S'PF05147'
p4970
(lp4971
(lp4972
I59
aI458
aF2.3e-62
aassS'BGC0000542|pabB'
p4973
(dp4974
S'PF14028'
p4975
(lp4976
(lp4977
I789
aI1051
aF3.9e-38
aasS'PF04738'
p4978
(lp4979
(lp4980
I54
aI704
aF1.5e-178
aassS'BGC0000535|nisF'
p4981
(dp4982
S'PF00005'
p4983
(lp4984
(lp4985
I18
aI152
aF7.4e-27
aassS'BGC0000625|BAN83932.1'
p4986
(dp4987
S'PF00476'
p4988
(lp4989
(lp4990
I242
aI530
aF3.6e-26
aassS'BGC0001167|AFK79991.1'
p4991
(dp4992
S'PF05685'
p4993
(lp4994
(lp4995
I19
aI188
aF4.0999999999999995e-42
aassS'BGC0000535|nisC'
p4996
(dp4997
S'PF05147'
p4998
(lp4999
(lp5000
I31
aI402
aF1.2e-79
aassS'BGC0000535|nisA'
p5001
(dp5002
S'PF02052'
p5003
(lp5004
(lp5005
I6
aI38
aF3.9e-08
aassS'BGC0001291|BAT21391.1'
p5006
(dp5007
S'PF01451'
p5008
(lp5009
(lp5010
I4
aI134
aF7.2e-26
aassS'BGC0000542|pabT'
p5011
(dp5012
S'PF00005'
p5013
(lp5014
(lp5015
I385
aI537
aF5e-33
aassS'BGC0000556|srtK'
p5016
(dp5017
S'PF02518'
p5018
(lp5019
(lp5020
I337
aI446
aF3.3999999999999996e-12
aasS'PF00512'
p5021
(lp5022
(lp5023
I232
aI289
aF5.1e-07
aassS'BGC0000535|nisK'
p5024
(dp5025
S'PF00512'
p5026
(lp5027
(lp5028
I231
aI289
aF4.8e-09
aasS'PF02518'
p5029
(lp5030
(lp5031
I341
aI446
aF6.3e-09
aassS'BGC0000607|AIU53928.1'
p5032
(dp5033
S'PF00589'
p5034
(lp5035
(lp5036
I16
aI169
aF1.6e-20
aassS'BGC0000601|skfB'
p5037
(dp5038
S'PF13186'
p5039
(lp5040
(lp5041
I333
aI370
aF0.0002
aasS'PF04055'
p5042
(lp5043
(lp5044
I113
aI264
aF1.1e-20
aassS'BGC0000548|salB'
p5045
(dp5046
S'PF13575'
p5047
(lp5048
(lp5049
I106
aI468
aF7.3e-85
aassS'BGC0001229|SBI_06987'
p5050
(dp5051
S'PF13575'
p5052
(lp5053
(lp5054
I844
aI1217
aF1.2e-81
aasS'PF00005'
p5055
(lp5056
(lp5057
I503
aI651
aF6e-35
aasS'PF05147'
p5058
(lp5059
(lp5060
I1347
aI1642
aF1.4e-18
aasS'PF03412'
p5061
(lp5062
(lp5063
I16
aI144
aF1.3e-27
aasS'PF00664'
p5064
(lp5065
(lp5066
I206
aI438
aF2.2000000000000002e-16
aassS'BGC0000611|sioC'
p5067
(dp5068
S'PF00733'
p5069
(lp5070
(lp5071
I241
aI587
aF2.4e-87
aasS'PF13537'
p5072
(lp5073
(lp5074
I48
aI170
aF2.3e-43
aassS'BGC0000548|salC'
p5075
(dp5076
S'PF05147'
p5077
(lp5078
(lp5079
I2
aI295
aF5.4999999999999996e-67
aassS'BGC0000601|skfC'
p5080
(dp5081
S'PF02517'
p5082
(lp5083
(lp5084
I385
aI471
aF8.4e-11
aassS'BGC0000600|thnB'
p5085
(dp5086
S'PF05402'
p5087
(lp5088
(lp5089
I38
aI90
aF7.5e-07
aasS'PF13186'
p5090
(lp5091
(lp5092
I347
aI416
aF6.1e-07
aasS'PF04055'
p5093
(lp5094
(lp5095
I125
aI284
aF1.6999999999999999e-19
aassS'BGC0000623|AAK27372.1'
p5096
(dp5097
S'PF00005'
p5098
(lp5099
(lp5100
I489
aI637
aF2.5000000000000002e-30
aasS'PF03412'
p5101
(lp5102
(lp5103
I4
aI132
aF5.0000000000000004e-30
aasS'PF00664'
p5104
(lp5105
(lp5106
I162
aI426
aF1.1e-07
aassS'BGC0000580|XGA_4061'
p5107
(dp5108
S'PF00733'
p5109
(lp5110
(lp5111
I216
aI573
aF5e-32
aassS'BGC0000580|XGA_4060'
p5112
(dp5113
S'PF13471'
p5114
(lp5115
(lp5116
I105
aI222
aF6.700000000000001e-22
aassS'BGC0000486|AAC69556.1'
p5117
(dp5118
S'PF14501'
p5119
(lp5120
(lp5121
I285
aI386
aF1.8e-23
aassS'BGC0000529|mibH'
p5122
(dp5123
S'PF04820'
p5124
(lp5125
(lp5126
I59
aI466
aF4.0999999999999995e-112
aassS'BGC0000605|getF'
p5127
(dp5128
S'PF14028'
p5129
(lp5130
(lp5131
I38
aI234
aF3.0000000000000002e-15
aassS'BGC0000605|getG'
p5132
(dp5133
S'PF00881'
p5134
(lp5135
(lp5136
I228
aI400
aF8.3e-06
aassS'BGC0000548|salR'
p5137
(dp5138
S'PF00196'
p5139
(lp5140
(lp5141
I137
aI190
aF1.2e-12
aasS'PF00072'
p5142
(lp5143
(lp5144
I3
aI116
aF2.9e-17
aassS'BGC0000605|getE'
p5145
(dp5146
S'PF14028'
p5147
(lp5148
(lp5149
I27
aI209
aF5.8e-38
aassS'BGC0000469|botRMT1'
p5150
(dp5151
S'PF04055'
p5152
(lp5153
(lp5154
I272
aI430
aF4.7e-07
aassS'BGC0000605|getC'
p5155
(dp5156
S'PF01061'
p5157
(lp5158
(lp5159
I5
aI212
aF1.4e-27
aassS'BGC0000469|botRMT3'
p5160
(dp5161
S'PF04055'
p5162
(lp5163
(lp5164
I307
aI464
aF3.2e-08
aassS'BGC0000526|mcdA'
p5165
(dp5166
S'PF04604'
p5167
(lp5168
(lp5169
I1
aI50
aF4.2e-25
aassS'BGC0000548|salX'
p5170
(dp5171
S'PF00005'
p5172
(lp5173
(lp5174
I21
aI169
aF1e-30
aassS'BGC0000605|getL'
p5175
(dp5176
S'PF00440'
p5177
(lp5178
(lp5179
I4
aI42
aF2.6000000000000003e-10
aassS'BGC0000605|getM'
p5180
(dp5181
S'PF01546'
p5182
(lp5183
(lp5184
I68
aI387
aF1.3000000000000002e-17
aassS'BGC0000605|getJ'
p5185
(dp5186
S'PF00067'
p5187
(lp5188
(lp5189
I142
aI304
aF1.3000000000000002e-15
aassS'BGC0000474|mcaA'
p5190
(dp5191
S'PF00082'
p5192
(lp5193
(lp5194
I13
aI254
aF3e-32
aassS'BGC0001398|PhomYd'
p5195
(dp5196
S'PF11807'
p5197
(lp5198
(lp5199
I149
aI204
aF3.9e-12
aassS'BGC0000605|getI'
p5200
(dp5201
S'PF02624'
p5202
(lp5203
(lp5204
I260
aI599
aF6.4e-79
aassS'BGC0000523|CAC33834.1'
p5205
(dp5206
S'PF17363'
p5207
(lp5208
(lp5209
I43
aI111
aF1.1e-28
aassS'BGC0000495|ACR33062.1'
p5210
(dp5211
S'PF12697'
p5212
(lp5213
(lp5214
I29
aI230
aF3.9e-17
aassS'BGC0000626|thuM'
p5215
(dp5216
S'PF13575'
p5217
(lp5218
(lp5219
I142
aI504
aF7.1e-74
aasS'PF05147'
p5220
(lp5221
(lp5222
I612
aI935
aF2.1000000000000004e-31
aassS'BGC0001356|PDENDC454_19528'
p5223
(dp5224
S'PF00005'
p5225
(lp5226
(lp5227
I377
aI526
aF1.1000000000000001e-32
aasS'PF00664'
p5228
(lp5229
(lp5230
I73
aI282
aF1.3999999999999999e-14
aassS'BGC0000515|spaK'
p5231
(dp5232
S'PF02518'
p5233
(lp5234
(lp5235
I361
aI469
aF9.099999999999998e-21
aasS'PF00512'
p5236
(lp5237
(lp5238
I248
aI311
aF1.1e-07
aassS'BGC0000486|bviB'
p5239
(dp5240
S'PF00005'
p5241
(lp5242
(lp5243
I24
aI158
aF9.099999999999998e-24
aassS'BGC0000486|bviC'
p5244
(dp5245
S'PF13346'
p5246
(lp5247
(lp5248
I3
aI211
aF2e-27
aassS'BGC0000515|spaF'
p5249
(dp5250
S'PF00005'
p5251
(lp5252
(lp5253
I22
aI158
aF1.8999999999999998e-34
aassS'BGC0000486|bviA'
p5254
(dp5255
S'PF12173'
p5256
(lp5257
(lp5258
I4
aI80
aF4.099999999999999e-39
aassS'BGC0001356|PDENDC454_19523'
p5259
(dp5260
S'PF13471'
p5261
(lp5262
(lp5263
I27
aI131
aF7.5e-20
aassS'BGC0000515|spaB'
p5264
(dp5265
S'PF14028'
p5266
(lp5267
(lp5268
I772
aI1031
aF5.400000000000001e-35
aasS'PF04738'
p5269
(lp5270
(lp5271
I46
aI697
aF5.8e-149
aassS'BGC0000498|AGR45948.1'
p5272
(dp5273
S'PF13154'
p5274
(lp5275
(lp5276
I110
aI181
aF1.2e-06
aassS'BGC0000535|nisP'
p5277
(dp5278
S'PF00082'
p5279
(lp5280
(lp5281
I251
aI548
aF3.3999999999999997e-47
aassS'BGC0001398|PhomT'
p5282
(dp5283
S'PF07690'
p5284
(lp5285
(lp5286
I98
aI500
aF2.7e-39
aassS'BGC0000469|AFV25467.1'
p5287
(dp5288
S'PF00005'
p5289
(lp5290
(lp5291
I5
aI148
aF4.8e-24
aassS'BGC0000581|mcjC'
p5292
(dp5293
S'PF00733'
p5294
(lp5295
(lp5296
I188
aI246
aF1.7e-05
aassS'BGC0001307|ALT06551.1'
p5297
(dp5298
S'PF04138'
p5299
(lp5300
(lp5301
I1
aI121
aF1.6000000000000002e-19
aassS'BGC0000515|spaT'
p5302
(dp5303
S'PF00005'
p5304
(lp5305
(lp5306
I373
aI521
aF9.699999999999999e-35
aassS'BGC0000613|tpdJ1'
p5307
(dp5308
S'PF00067'
p5309
(lp5310
(lp5311
I179
aI362
aF6e-27
aa(lp5312
I30
aI116
aF8.9e-07
aassS'BGC0000566|SPy_0744'
p5313
(dp5314
S'PF00005'
p5315
(lp5316
(lp5317
I21
aI162
aF2.2000000000000004e-33
aassS'BGC0000480|tenG'
p5318
(dp5319
S'PF00881'
p5320
(lp5321
(lp5322
I270
aI470
aF1.3e-09
aasS'PF00082'
p5323
(lp5324
(lp5325
I701
aI920
aF8.7e-19
aassS'BGC0000566|SPy_0742'
p5326
(dp5327
S'PF02517'
p5328
(lp5329
(lp5330
I123
aI206
aF3.1000000000000005e-09
aassS'BGC0000541|paeC'
p5331
(dp5332
S'PF05147'
p5333
(lp5334
(lp5335
I59
aI458
aF8.5e-58
aassS'BGC0000515|spaR'
p5336
(dp5337
S'PF00072'
p5338
(lp5339
(lp5340
I6
aI113
aF1.2e-26
aasS'PF00486'
p5341
(lp5342
(lp5343
I149
aI224
aF3.1e-20
aassS'BGC0000566|SPy_0741'
p5344
(dp5345
S'PF02624'
p5346
(lp5347
(lp5348
I69
aI421
aF8.300000000000001e-54
aassS'BGC0001391|thsT'
p5349
(dp5350
S'PF00005'
p5351
(lp5352
(lp5353
I491
aI639
aF1.6999999999999998e-36
aasS'PF03412'
p5354
(lp5355
(lp5356
I4
aI132
aF5.2e-38
aasS'PF00664'
p5357
(lp5358
(lp5359
I160
aI428
aF8.2e-25
aassS'BGC0000469|AFV25469.1'
p5360
(dp5361
S'PF06182'
p5362
(lp5363
(lp5364
I21
aI241
aF1.8e-18
aassS'BGC0000539|BAC98758.1'
p5365
(dp5366
S'PF04397'
p5367
(lp5368
(lp5369
I143
aI240
aF4.0999999999999995e-09
aasS'PF00072'
p5370
(lp5371
(lp5372
I7
aI113
aF7.200000000000001e-08
aassS'BGC0000610|nosE'
p5373
(dp5374
S'PF04738'
p5375
(lp5376
(lp5377
I148
aI813
aF4.2e-42
aassS'BGC0000609|noc7'
p5378
(dp5379
S'PF12849'
p5380
(lp5381
(lp5382
I73
aI165
aF8.300000000000002e-18
aassS'BGC0000541|paeE'
p5383
(dp5384
S'PF12730'
p5385
(lp5386
(lp5387
I4
aI187
aF2.5e-09
aassS'BGC0000499|AAC19356.1'
p5388
(dp5389
S'PF13575'
p5390
(lp5391
(lp5392
I91
aI449
aF2.5000000000000002e-58
aasS'PF05147'
p5393
(lp5394
(lp5395
I566
aI790
aF1.7999999999999998e-34
aassS'BGC0000614|ACN52309.1'
p5396
(dp5397
S'PF00733'
p5398
(lp5399
(lp5400
I241
aI609
aF8.9e-88
aasS'PF13537'
p5401
(lp5402
(lp5403
I48
aI170
aF1.1000000000000002e-42
aassS'BGC0000623|AAG02567.1'
p5404
(dp5405
S'PF14867'
p5406
(lp5407
(lp5408
I32
aI59
aF2.5e-09
aassS'BGC0000625|BAN83914.1'
p5409
(dp5410
S'PF13177'
p5411
(lp5412
(lp5413
I41
aI188
aF8.400000000000001e-32
aassS'BGC0000503|cinorf3'
p5414
(dp5415
S'PF00892'
p5416
(lp5417
(lp5418
I4
aI114
aF2.2999999999999997e-07
aassS'BGC0000529|mibZ'
p5419
(dp5420
S'PF00005'
p5421
(lp5422
(lp5423
I23
aI169
aF1.8000000000000002e-25
aassS'BGC0000610|nosG'
p5424
(dp5425
S'PF02624'
p5426
(lp5427
(lp5428
I270
aI612
aF1.3e-80
aassS'BGC0000498|ACA51933.1'
p5429
(dp5430
S'PF00271'
p5431
(lp5432
(lp5433
I533
aI604
aF8e-07
aasS'PF00176'
p5434
(lp5435
(lp5436
I103
aI425
aF6.700000000000001e-13
aassS'BGC0000503|cinorf4'
p5437
(dp5438
S'PF01381'
p5439
(lp5440
(lp5441
I15
aI68
aF2.2999999999999998e-11
aasS'PF07883'
p5442
(lp5443
(lp5444
I116
aI183
aF2.3e-15
aassS'BGC0000600|thnR'
p5445
(dp5446
S'PF00392'
p5447
(lp5448
(lp5449
I13
aI76
aF1.8e-15
aassS'BGC0000468|bmbI'
p5450
(dp5451
S'PF00067'
p5452
(lp5453
(lp5454
I319
aI376
aF5.500000000000001e-10
aassS'BGC0000541|paeF'
p5455
(dp5456
S'PF00005'
p5457
(lp5458
(lp5459
I21
aI166
aF9.1e-32
aassS'BGC0001210|bpmyx0001_45490'
p5460
(dp5461
S'PF12730'
p5462
(lp5463
(lp5464
I6
aI186
aF4.0999999999999994e-19
aassS'BGC0001222|aciE'
p5465
(dp5466
S'PF13346'
p5467
(lp5468
(lp5469
I3
aI208
aF2e-17
aassS'BGC0001222|aciD'
p5470
(dp5471
S'PF01944'
p5472
(lp5473
(lp5474
I14
aI155
aF4e-07
aassS'BGC0000469|AFV25464.1'
p5475
(dp5476
S'PF04286'
p5477
(lp5478
(lp5479
I31
aI392
aF3.4e-101
aassS'BGC0000469|botAH'
p5480
(dp5481
S'PF01979'
p5482
(lp5483
(lp5484
I315
aI417
aF7.500000000000001e-05
aassS'BGC0000469|botC'
p5485
(dp5486
S'PF02624'
p5487
(lp5488
(lp5489
I44
aI261
aF1e-06
aassS'BGC0000610|nosB'
p5490
(dp5491
S'PF00067'
p5492
(lp5493
(lp5494
I271
aI432
aF1.8e-18
aassS'BGC0001145|H340_11755'
p5495
(dp5496
S'PF04738'
p5497
(lp5498
(lp5499
I142
aI816
aF2.3e-80
aassS'BGC0001157|SCAB_56651'
p5500
(dp5501
S'PF04055'
p5502
(lp5503
(lp5504
I274
aI433
aF2.1000000000000003e-08
aassS'BGC0001157|SCAB_56641'
p5505
(dp5506
S'PF00561'
p5507
(lp5508
(lp5509
I20
aI120
aF1.8000000000000002e-09
aassS'BGC0000584|CAA11511.1'
p5510
(dp5511
S'PF00743'
p5512
(lp5513
(lp5514
I2
aI228
aF2e-31
aassS'BGC0000509|elx2'
p5515
(dp5516
S'PF02517'
p5517
(lp5518
(lp5519
I140
aI231
aF1.1000000000000001e-10
aassS'BGC0000469|botH'
p5520
(dp5521
S'PF00561'
p5522
(lp5523
(lp5524
I34
aI142
aF3.6e-10
aassS'BGC0000481|TeryDRAFT_3508'
p5525
(dp5526
S'PF00881'
p5527
(lp5528
(lp5529
I284
aI462
aF1.2e-15
aassS'BGC0000481|TeryDRAFT_3509'
p5530
(dp5531
S'PF08869'
p5532
(lp5533
(lp5534
I2
aI45
aF6.6e-18
aassS'BGC0000552|smbF'
p5535
(dp5536
S'PF00005'
p5537
(lp5538
(lp5539
I19
aI148
aF6.0000000000000005e-25
aassS'BGC0000469|botR'
p5540
(dp5541
S'PF09860'
p5542
(lp5543
(lp5544
I115
aI183
aF4.4e-22
aassS'BGC0000591|mstI'
p5545
(dp5546
S'PF12559'
p5547
(lp5548
(lp5549
I2
aI56
aF1.6e-11
aassS'BGC0000585|mccF'
p5550
(dp5551
S'PF02016'
p5552
(lp5553
(lp5554
I19
aI324
aF1.3e-69
aassS'BGC0001188|RZ84_RS20245'
p5555
(dp5556
S'PF13649'
p5557
(lp5558
(lp5559
I56
aI148
aF7.7e-16
aassS'BGC0000585|mccD'
p5560
(dp5561
S'PF08241'
p5562
(lp5563
(lp5564
I55
aI152
aF5e-13
aassS'BGC0000585|mccE'
p5565
(dp5566
S'PF02784'
p5567
(lp5568
(lp5569
I1
aI208
aF1.1000000000000001e-15
aasS'PF13302'
p5570
(lp5571
(lp5572
I384
aI495
aF8.6e-12
aassS'BGC0000585|mccB'
p5573
(dp5574
S'PF00899'
p5575
(lp5576
(lp5577
I106
aI324
aF4.099999999999999e-45
aassS'BGC0000481|TeryDRAFT_3505'
p5578
(dp5579
S'PF00082'
p5580
(lp5581
(lp5582
I22
aI265
aF2.3e-32
aassS'BGC0000481|TeryDRAFT_3507'
p5583
(dp5584
S'PF01797'
p5585
(lp5586
(lp5587
I10
aI91
aF3.4999999999999997e-19
aassS'BGC0000494|ABG48502.1'
p5588
(dp5589
S'PF04397'
p5590
(lp5591
(lp5592
I151
aI242
aF1.3e-20
aassS'BGC0000597|SSTG_01180'
p5593
(dp5594
S'PF13193'
p5595
(lp5596
(lp5597
I358
aI434
aF8.6e-22
aasS'PF00501'
p5598
(lp5599
(lp5600
I27
aI348
aF1.3e-61
aassS'BGC0000610|nos6'
p5601
(dp5602
S'PF00542'
p5603
(lp5604
(lp5605
I63
aI129
aF3.5e-28
aasS'PF16320'
p5606
(lp5607
(lp5608
I5
aI54
aF2e-17
aassS'BGC0001311|RUMFLAFD1_RS0111200'
p5609
(dp5610
S'PF00005'
p5611
(lp5612
(lp5613
I494
aI643
aF6.900000000000001e-33
aasS'PF03412'
p5614
(lp5615
(lp5616
I7
aI136
aF1.7e-33
aasS'PF00664'
p5617
(lp5618
(lp5619
I165
aI430
aF1.6e-30
aassS'BGC0000534|mukA2'
p5620
(dp5621
S'PF04604'
p5622
(lp5623
(lp5624
I1
aI50
aF9.3e-21
aassS'BGC0000610|nos1'
p5625
(dp5626
S'PF00009'
p5627
(lp5628
(lp5629
I10
aI293
aF1.6000000000000002e-66
aassS'BGC0000469|AFV25465.1'
p5630
(dp5631
S'PF13472'
p5632
(lp5633
(lp5634
I343
aI537
aF2.4e-24
aassS'BGC0000597|SSTG_01181'
p5635
(dp5636
S'PF00082'
p5637
(lp5638
(lp5639
I222
aI478
aF9.800000000000002e-56
aassS'BGC0000533|mutD'
p5640
(dp5641
S'PF02441'
p5642
(lp5643
(lp5644
I8
aI166
aF1.7e-33
aassS'BGC0000494|ublC'
p5645
(dp5646
S'PF01944'
p5647
(lp5648
(lp5649
I17
aI171
aF1.5e-17
aassS'BGC0000610|nos2'
p5650
(dp5651
S'PF00177'
p5652
(lp5653
(lp5654
I1
aI149
aF8.199999999999999e-60
aassS'BGC0000533|mutA'
p5655
(dp5656
S'PF02052'
p5657
(lp5658
(lp5659
I12
aI63
aF1.4e-33
aassS'BGC0000533|mutB'
p5660
(dp5661
S'PF14028'
p5662
(lp5663
(lp5664
I724
aI971
aF5.7e-16
aasS'PF04738'
p5665
(lp5666
(lp5667
I38
aI662
aF3.6e-115
aassS'BGC0000533|mutC'
p5668
(dp5669
S'PF05147'
p5670
(lp5671
(lp5672
I40
aI407
aF2e-52
aassS'BGC0001148|pgm10'
p5673
(dp5674
S'PF00378'
p5675
(lp5676
(lp5677
I91
aI199
aF7.1e-09
aassS'BGC0000486|bviE'
p5678
(dp5679
S'PF01944'
p5680
(lp5681
(lp5682
I19
aI159
aF2.6e-08
aassS'BGC0000533|mutT'
p5683
(dp5684
S'PF00005'
p5685
(lp5686
(lp5687
I337
aI484
aF1.7e-31
aasS'PF00664'
p5688
(lp5689
(lp5690
I18
aI277
aF3.4e-31
aassS'BGC0000522|orf9z'
p5691
(dp5692
S'PF06543'
p5693
(lp5694
(lp5695
I69
aI114
aF4.5000000000000005e-15
aasS'PF12844'
p5696
(lp5697
(lp5698
I4
aI62
aF2.2999999999999997e-07
aassS'BGC0000533|mutP'
p5699
(dp5700
S'PF00082'
p5701
(lp5702
(lp5703
I130
aI435
aF1.7e-42
aassS'BGC0000586|mceH'
p5704
(dp5705
S'PF13533'
p5706
(lp5707
(lp5708
I55
aI88
aF4.9000000000000005e-06
aasS'PF13437'
p5709
(lp5710
(lp5711
I249
aI345
aF3.5e-14
aassS'BGC0000528|clvE'
p5712
(dp5713
S'PF12730'
p5714
(lp5715
(lp5716
I2
aI177
aF1.5e-16
aassS'BGC0000564|sagG'
p5717
(dp5718
S'PF00005'
p5719
(lp5720
(lp5721
I19
aI162
aF9.4e-35
aassS'BGC0000519|labT1'
p5722
(dp5723
S'PF00005'
p5724
(lp5725
(lp5726
I345
aI492
aF2.2999999999999997e-24
aasS'PF00664'
p5727
(lp5728
(lp5729
I21
aI278
aF1.3e-20
aassS'BGC0000564|sagE'
p5730
(dp5731
S'PF02517'
p5732
(lp5733
(lp5734
I118
aI206
aF1.1000000000000001e-10
aassS'BGC0001176|LP52_05075'
p5735
(dp5736
S'PF00733'
p5737
(lp5738
(lp5739
I167
aI542
aF2.0999999999999997e-21
aassS'BGC0000534|mukA_'
p5740
(dp5741
S'PF04604'
p5742
(lp5743
(lp5744
I1
aI53
aF3.6e-23
aassS'BGC0000564|sagI'
p5745
(dp5746
S'PF12698'
p5747
(lp5748
(lp5749
I21
aI367
aF2e-37
aassS'BGC0000521|lctA'
p5750
(dp5751
S'PF04604'
p5752
(lp5753
(lp5754
I1
aI50
aF1.1000000000000001e-27
aassS'BGC0000474|mcaG'
p5755
(dp5756
S'PF00881'
p5757
(lp5758
(lp5759
I270
aI477
aF5.5000000000000006e-17
aasS'PF00082'
p5760
(lp5761
(lp5762
I705
aI923
aF2.4e-18
aassS'BGC0000578|SSGG_RS13905'
p5763
(dp5764
S'PF05402'
p5765
(lp5766
(lp5767
I17
aI81
aF1.3999999999999999e-12
aassS'BGC0000610|nosD'
p5768
(dp5769
S'PF14028'
p5770
(lp5771
(lp5772
I9
aI311
aF1.9e-51
aassS'BGC0001398|PhomO'
p5773
(dp5774
S'PF00005'
p5775
(lp5776
(lp5777
I1316
aI1475
aF4.5e-21
aa(lp5778
I661
aI794
aF2.5e-19
aasS'PF00664'
p5779
(lp5780
(lp5781
I917
aI1171
aF1.5e-17
aassS'BGC0000561|BAJ10689.1'
p5782
(dp5783
S'PF12730'
p5784
(lp5785
(lp5786
I4
aI182
aF3.4e-08
aassS'BGC0000511|eriSa'
p5787
(dp5788
S'PF02052'
p5789
(lp5790
(lp5791
I8
aI39
aF3.5e-06
aassS'BGC0000511|eriSb'
p5792
(dp5793
S'PF02052'
p5794
(lp5795
(lp5796
I5
aI36
aF1.3000000000000001e-05
aassS'BGC0000610|nosC'
p5797
(dp5798
S'PF00067'
p5799
(lp5800
(lp5801
I91
aI377
aF1.8e-29
aassS'BGC0000625|tvaB'
p5802
(dp5803
S'PF03704'
p5804
(lp5805
(lp5806
I123
aI266
aF5.799999999999999e-28
aasS'PF00486'
p5807
(lp5808
(lp5809
I40
aI115
aF2.8999999999999998e-12
aassS'BGC0000610|nosN'
p5810
(dp5811
S'PF04055'
p5812
(lp5813
(lp5814
I10
aI189
aF4.2e-16
aassS'BGC0000610|nosO'
p5815
(dp5816
S'PF14028'
p5817
(lp5818
(lp5819
I187
aI348
aF5.5000000000000004e-09
aassS'BGC0000585|mccC'
p5820
(dp5821
S'PF07690'
p5822
(lp5823
(lp5824
I19
aI331
aF2.5e-10
aassS'BGC0000610|nosI'
p5825
(dp5826
S'PF00501'
p5827
(lp5828
(lp5829
I125
aI355
aF2e-18
aassS'BGC0000610|nosK'
p5830
(dp5831
S'PF12697'
p5832
(lp5833
(lp5834
I33
aI247
aF1e-13
aassS'BGC0000575|larE'
p5835
(dp5836
S'PF00005'
p5837
(lp5838
(lp5839
I359
aI507
aF1.1000000000000003e-30
aasS'PF00664'
p5840
(lp5841
(lp5842
I29
aI292
aF7.199999999999999e-34
aassS'BGC0000530|SMU76_03190'
p5843
(dp5844
S'PF00005'
p5845
(lp5846
(lp5847
I337
aI484
aF8.2e-31
aasS'PF00664'
p5848
(lp5849
(lp5850
I18
aI277
aF6.200000000000001e-31
aassS'BGC0000538|nisin'
p5851
(dp5852
S'PF02052'
p5853
(lp5854
(lp5855
I6
aI38
aF4.7000000000000004e-08
aassS'BGC0000612|BC_5079'
p5856
(dp5857
S'PF13561'
p5858
(lp5859
(lp5860
I18
aI254
aF2.8999999999999996e-49
aassS'BGC0000509|elxT'
p5861
(dp5862
S'PF00005'
p5863
(lp5864
(lp5865
I350
aI500
aF2.2000000000000003e-32
aasS'PF00664'
p5866
(lp5867
(lp5868
I24
aI290
aF2.2e-47
aassS'BGC0000469|botCYP'
p5869
(dp5870
S'PF00067'
p5871
(lp5872
(lp5873
I254
aI312
aF9.800000000000002e-09
aassS'BGC0000509|elxP'
p5874
(dp5875
S'PF00082'
p5876
(lp5877
(lp5878
I34
aI279
aF2.8e-17
aassS'BGC0000598|poyE'
p5879
(dp5880
S'PF05175'
p5881
(lp5882
(lp5883
I155
aI248
aF1e-13
aassS'BGC0000598|poyG'
p5884
(dp5885
S'PF09394'
p5886
(lp5887
(lp5888
I22
aI97
aF8.099999999999999e-11
aassS'BGC0000598|poyF'
p5889
(dp5890
S'PF13575'
p5891
(lp5892
(lp5893
I148
aI513
aF3.1e-87
aassS'BGC0001364|G339_RS0111990'
p5894
(dp5895
S'PF13460'
p5896
(lp5897
(lp5898
I7
aI175
aF4e-24
aassS'BGC0000620|BAM66971.1'
p5899
(dp5900
S'PF00746'
p5901
(lp5902
(lp5903
I586
aI625
aF5.5e-11
aassS'BGC0001291|BAT21389.1'
p5904
(dp5905
S'PF01758'
p5906
(lp5907
(lp5908
I1
aI133
aF7.8e-40
aassS'BGC0000555|BAB78438.1'
p5909
(dp5910
S'PF14867'
p5911
(lp5912
(lp5913
I31
aI62
aF4.5e-08
aassS'BGC0000625|tvaM'
p5914
(dp5915
S'PF13581'
p5916
(lp5917
(lp5918
I41
aI155
aF1e-14
aassS'BGC0000598|poyI'
p5919
(dp5920
S'PF13621'
p5921
(lp5922
(lp5923
I20
aI244
aF2.8999999999999996e-49
aassS'BGC0000509|elxA'
p5924
(dp5925
S'PF08130'
p5926
(lp5927
(lp5928
I2
aI41
aF2.4999999999999998e-06
aassS'BGC0000509|elxB'
p5929
(dp5930
S'PF14028'
p5931
(lp5932
(lp5933
I732
aI973
aF7.700000000000001e-17
aasS'PF04738'
p5934
(lp5935
(lp5936
I49
aI666
aF4.8e-78
aassS'BGC0000598|poyJ'
p5937
(dp5938
S'PF12146'
p5939
(lp5940
(lp5941
I312
aI540
aF3.0000000000000002e-18
aassS'BGC0000604|tpdU'
p5942
(dp5943
S'PF04055'
p5944
(lp5945
(lp5946
I27
aI204
aF7.6e-18
aassS'BGC0000604|tpdT'
p5947
(dp5948
S'PF05175'
p5949
(lp5950
(lp5951
I133
aI220
aF3.4e-11
aassS'BGC0000609|noc-6'
p5952
(dp5953
S'PF01596'
p5954
(lp5955
(lp5956
I19
aI219
aF1.6e-60
aassS'BGC0000609|noc-7'
p5957
(dp5958
S'PF00550'
p5959
(lp5960
(lp5961
I19
aI77
aF0.00013
aassS'BGC0000610|nosL'
p5962
(dp5963
S'PF06968'
p5964
(lp5965
(lp5966
I281
aI383
aF3.7999999999999996e-06
aassS'BGC0000604|tpdP'
p5967
(dp5968
S'PF04738'
p5969
(lp5970
(lp5971
I132
aI766
aF1.6999999999999998e-38
aassS'BGC0000609|noc-2'
p5972
(dp5973
S'PF04542'
p5974
(lp5975
(lp5976
I5
aI70
aF9.7e-09
aasS'PF08281'
p5977
(lp5978
(lp5979
I98
aI148
aF1.2e-07
aassS'BGC0000609|noc-3'
p5980
(dp5981
S'PF03795'
p5982
(lp5983
(lp5984
I27
aI117
aF2.2999999999999998e-11
aassS'BGC0000603|cltQ'
p5985
(dp5986
S'PF13586'
p5987
(lp5988
(lp5989
I21
aI115
aF4.7000000000000005e-26
aassS'BGC0000603|cltP'
p5990
(dp5991
S'PF13560'
p5992
(lp5993
(lp5994
I12
aI92
aF5.4e-19
aassS'BGC0001392|Cpin_5317'
p5995
(dp5996
S'PF02311'
p5997
(lp5998
(lp5999
I36
aI89
aF3.4e-05
aasS'PF12833'
p6000
(lp6001
(lp6002
I210
aI287
aF3.7e-19
aassS'BGC0000625|tvaN'
p6003
(dp6004
S'PF00196'
p6005
(lp6006
(lp6007
I937
aI988
aF1.4e-15
aassS'BGC0000499|bvi79'
p6008
(dp6009
S'PF04604'
p6010
(lp6011
(lp6012
I2
aI47
aF2e-25
aassS'BGC0001209|STER_1356'
p6013
(dp6014
S'PF04055'
p6015
(lp6016
(lp6017
I116
aI264
aF1.3000000000000002e-17
aassS'BGC0001173|BAT_RS01135'
p6018
(dp6019
S'PF13489'
p6020
(lp6021
(lp6022
I54
aI176
aF9.099999999999999e-14
aassS'BGC0001311|RUMFLAFD1_RS0111205'
p6023
(dp6024
S'PF13575'
p6025
(lp6026
(lp6027
I173
aI548
aF1.8999999999999998e-88
aasS'PF05147'
p6028
(lp6029
(lp6030
I673
aI1017
aF3.7999999999999997e-54
aassS'BGC0000603|cltH'
p6031
(dp6032
S'PF00196'
p6033
(lp6034
(lp6035
I867
aI920
aF1.6999999999999998e-12
aasS'PF13191'
p6036
(lp6037
(lp6038
I8
aI165
aF3.2000000000000003e-15
aassS'BGC0000604|tpdG'
p6039
(dp6040
S'PF02624'
p6041
(lp6042
(lp6043
I206
aI548
aF3.1e-84
aassS'BGC0000603|cltL'
p6044
(dp6045
S'PF13340'
p6046
(lp6047
(lp6048
I7
aI58
aF1.7e-16
aassS'BGC0000577|SJA_P1-00940'
p6049
(dp6050
S'PF00733'
p6051
(lp6052
(lp6053
I218
aI347
aF8.3e-12
aa(lp6054
I464
aI576
aF2.2999999999999996e-06
aassS'BGC0000604|tpdB'
p6055
(dp6056
S'PF04738'
p6057
(lp6058
(lp6059
I154
aI758
aF9e-47
aassS'BGC0000609|noc6'
p6060
(dp6061
S'PF13847'
p6062
(lp6063
(lp6064
I40
aI170
aF1.4e-26
aassS'BGC0000604|tpdL'
p6065
(dp6066
S'PF04055'
p6067
(lp6068
(lp6069
I36
aI212
aF9.6e-18
aassS'BGC0000603|cltC'
p6070
(dp6071
S'PF00881'
p6072
(lp6073
(lp6074
I113
aI256
aF9.6e-07
aa(lp6075
I468
aI548
aF7.599999999999999e-06
aassS'BGC0000604|tpdN'
p6076
(dp6077
S'PF01872'
p6078
(lp6079
(lp6080
I3
aI178
aF8.5e-21
aassS'BGC0000603|cltE'
p6081
(dp6082
S'PF04738'
p6083
(lp6084
(lp6085
I141
aI817
aF1.7e-111
aassS'BGC0000609|noc3'
p6086
(dp6087
S'PF00011'
p6088
(lp6089
(lp6090
I31
aI128
aF2.2e-20
aassS'BGC0000603|cltG'
p6091
(dp6092
S'PF14028'
p6093
(lp6094
(lp6095
I3
aI334
aF1.5e-79
aassS'BGC0001364|G339_RS0111975'
p6096
(dp6097
S'PF12728'
p6098
(lp6099
(lp6100
I5
aI51
aF3e-17
aassS'BGC0000611|sio6'
p6101
(dp6102
S'PF00494'
p6103
(lp6104
(lp6105
I37
aI271
aF2.6e-28
aassS'BGC0000508|epiQ'
p6106
(dp6107
S'PF00486'
p6108
(lp6109
(lp6110
I127
aI198
aF1.8000000000000003e-17
aassS'BGC0000536|niqC'
p6111
(dp6112
S'PF05147'
p6113
(lp6114
(lp6115
I31
aI402
aF9.3e-76
aassS'BGC0000611|sio5'
p6116
(dp6117
S'PF02687'
p6118
(lp6119
(lp6120
I309
aI403
aF3e-14
aa(lp6121
I767
aI858
aF2.8999999999999998e-12
aasS'PF12704'
p6122
(lp6123
(lp6124
I507
aI702
aF1e-13
aa(lp6125
I17
aI247
aF3.8e-13
aassS'BGC0000611|sio2'
p6126
(dp6127
S'PF00756'
p6128
(lp6129
(lp6130
I120
aI358
aF1.6e-30
aassS'BGC0000611|sio3'
p6131
(dp6132
S'PF05729'
p6133
(lp6134
(lp6135
I198
aI354
aF2.1e-07
aassS'BGC0000588|ACF22181.1'
p6136
(dp6137
S'PF00589'
p6138
(lp6139
(lp6140
I41
aI232
aF2.2e-44
aassS'BGC0000613|tpdE'
p6141
(dp6142
S'PF00881'
p6143
(lp6144
(lp6145
I236
aI414
aF3.6000000000000003e-13
aassS'BGC0000533|mutA_'
p6146
(dp6147
S'PF02052'
p6148
(lp6149
(lp6150
I12
aI64
aF2.6000000000000003e-10
aassS'BGC0000536|niqK'
p6151
(dp6152
S'PF02518'
p6153
(lp6154
(lp6155
I341
aI445
aF1.1e-07
aasS'PF00512'
p6156
(lp6157
(lp6158
I231
aI289
aF1.3e-07
aassS'BGC0000613|tpdF'
p6159
(dp6160
S'PF02624'
p6161
(lp6162
(lp6163
I415
aI549
aF1.2e-07
aassS'BGC0000613|tpdC'
p6164
(dp6165
S'PF14028'
p6166
(lp6167
(lp6168
I3
aI163
aF7.400000000000001e-31
aassS'BGC0000475|patG'
p6169
(dp6170
S'PF00881'
p6171
(lp6172
(lp6173
I276
aI474
aF1e-10
aasS'PF00082'
p6174
(lp6175
(lp6176
I604
aI822
aF8.899999999999999e-21
aassS'BGC0000612|BC_5080'
p6177
(dp6178
S'PF13649'
p6179
(lp6180
(lp6181
I65
aI157
aF5.4000000000000005e-18
aassS'BGC0000536|niqP'
p6182
(dp6183
S'PF00082'
p6184
(lp6185
(lp6186
I256
aI553
aF1.4999999999999999e-44
aassS'BGC0000508|epiB'
p6187
(dp6188
S'PF14028'
p6189
(lp6190
(lp6191
I724
aI968
aF8.099999999999999e-16
aasS'PF04738'
p6192
(lp6193
(lp6194
I40
aI665
aF2.6e-121
aassS'BGC0000508|epiC'
p6195
(dp6196
S'PF05147'
p6197
(lp6198
(lp6199
I74
aI453
aF3.6e-88
aassS'BGC0000508|epiD'
p6200
(dp6201
S'PF02441'
p6202
(lp6203
(lp6204
I4
aI173
aF1.7e-29
aassS'BGC0000475|patD'
p6205
(dp6206
S'PF02624'
p6207
(lp6208
(lp6209
I415
aI747
aF7.499999999999999e-94
aassS'BGC0000515|spaC'
p6210
(dp6211
S'PF05147'
p6212
(lp6213
(lp6214
I43
aI431
aF5.9e-91
aassS'BGC0000568|mcbC'
p6215
(dp6216
S'PF00881'
p6217
(lp6218
(lp6219
I91
aI253
aF1.8e-07
aassS'BGC0000612|BC_5073'
p6220
(dp6221
S'PF13302'
p6222
(lp6223
(lp6224
I5
aI138
aF7.8e-23
aassS'BGC0000612|BC_5072'
p6225
(dp6226
S'PF00005'
p6227
(lp6228
(lp6229
I20
aI188
aF6.7e-26
aa(lp6230
I338
aI466
aF7.1e-21
aasS'PF12848'
p6231
(lp6232
(lp6233
I228
aI311
aF3.5e-22
aassS'BGC0000540|agrA'
p6234
(dp6235
S'PF14501'
p6236
(lp6237
(lp6238
I331
aI437
aF4.5999999999999993e-14
aassS'BGC0000627|AFLA_095080'
p6239
(dp6240
S'PF00172'
p6241
(lp6242
(lp6243
I9
aI45
aF3.3e-08
aassS'BGC0000612|BC_5076'
p6244
(dp6245
S'PF00106'
p6246
(lp6247
(lp6248
I27
aI220
aF1.4e-52
aassS'BGC0000612|BC_5075'
p6249
(dp6250
S'PF03946'
p6251
(lp6252
(lp6253
I9
aI66
aF7.000000000000001e-26
aasS'PF00298'
p6254
(lp6255
(lp6256
I71
aI139
aF7.6e-22
aassS'BGC0000613|tpdR'
p6257
(dp6258
S'PF00440'
p6259
(lp6260
(lp6261
I22
aI65
aF2.6000000000000002e-12
aassS'BGC0001210|bpmyx0001_45510'
p6262
(dp6263
S'PF00005'
p6264
(lp6265
(lp6266
I1
aI137
aF3.4e-30
aassS'BGC0000575|larD'
p6267
(dp6268
S'PF13471'
p6269
(lp6270
(lp6271
I26
aI137
aF3.899999999999999e-21
aassS'BGC0000611|sioU'
p6272
(dp6273
S'PF00106'
p6274
(lp6275
(lp6276
I12
aI199
aF8.199999999999999e-48
aassS'BGC0000611|sioR'
p6277
(dp6278
S'PF00067'
p6279
(lp6280
(lp6281
I229
aI280
aF5e-07
aassS'BGC0000499|AAD24812.1'
p6282
(dp6283
S'PF12730'
p6284
(lp6285
(lp6286
I2
aI174
aF5e-10
aassS'BGC0001398|PhomP2'
p6287
(dp6288
S'PF03169'
p6289
(lp6290
(lp6291
I101
aI615
aF1e-105
aa(lp6292
I656
aI799
aF2.6e-13
aassS'BGC0000472|ADA00396.1'
p6293
(dp6294
S'PF00886'
p6295
(lp6296
(lp6297
I8
aI64
aF5.8e-18
aassS'BGC0001398|PhomYc'
p6298
(dp6299
S'PF11807'
p6300
(lp6301
(lp6302
I27
aI227
aF4.7e-41
aassS'BGC0001398|PhomYb'
p6303
(dp6304
S'PF11807'
p6305
(lp6306
(lp6307
I51
aI241
aF6.799999999999999e-28
aassS'BGC0000468|bmbR'
p6308
(dp6309
S'PF09860'
p6310
(lp6311
(lp6312
I115
aI183
aF7.7e-22
aassS'BGC0000598|poyB'
p6313
(dp6314
S'PF02310'
p6315
(lp6316
(lp6317
I99
aI189
aF7.9e-08
aasS'PF04055'
p6318
(lp6319
(lp6320
I264
aI426
aF1e-12
aassS'BGC0000468|bmbT'
p6321
(dp6322
S'PF05977'
p6323
(lp6324
(lp6325
I27
aI415
aF6e-14
aassS'BGC0000470|bstG'
p6326
(dp6327
S'PF00561'
p6328
(lp6329
(lp6330
I41
aI167
aF7.6e-11
aassS'BGC0001398|PhomYe'
p6331
(dp6332
S'PF11807'
p6333
(lp6334
(lp6335
I42
aI263
aF2.4e-25
aassS'BGC0000487|cclA'
p6336
(dp6337
S'PF09221'
p6338
(lp6339
(lp6340
I8
aI62
aF5.5e-06
aassS'BGC0001388|gaeX'
p6341
(dp6342
S'PF10439'
p6343
(lp6344
(lp6345
I3
aI60
aF5.9e-10
aassS'BGC0000611|sioG'
p6346
(dp6347
S'PF11066'
p6348
(lp6349
(lp6350
I32
aI152
aF1.7000000000000001e-09
aassS'BGC0000587|mchS1'
p6351
(dp6352
S'PF11806'
p6353
(lp6354
(lp6355
I55
aI168
aF4.9000000000000005e-26
aasS'PF00756'
p6356
(lp6357
(lp6358
I189
aI409
aF4.7999999999999995e-28
aassS'BGC0000468|bmbK'
p6359
(dp6360
S'PF02789'
p6361
(lp6362
(lp6363
I21
aI130
aF1.3999999999999999e-14
aasS'PF00883'
p6364
(lp6365
(lp6366
I161
aI471
aF3e-99
aassS'BGC0000516|G11MC16DRAFT_3405'
p6367
(dp6368
S'PF05952'
p6369
(lp6370
(lp6371
I1
aI41
aF1.9e-10
aassS'BGC0000516|G11MC16DRAFT_3404'
p6372
(dp6373
S'PF02518'
p6374
(lp6375
(lp6376
I663
aI754
aF3.6000000000000004e-09
aasS'PF07730'
p6377
(lp6378
(lp6379
I558
aI622
aF7.2e-10
aassS'BGC0000576|RGE_06980'
p6380
(dp6381
S'PF13471'
p6382
(lp6383
(lp6384
I129
aI239
aF4.7e-19
aassS'BGC0000611|sioA'
p6385
(dp6386
S'PF00155'
p6387
(lp6388
(lp6389
I41
aI334
aF2.8e-48
aassS'BGC0000488|cirA'
p6390
(dp6391
S'PF09221'
p6392
(lp6393
(lp6394
I5
aI72
aF2.6000000000000002e-12
aassS'BGC0000468|bmbA'
p6395
(dp6396
S'PF04072'
p6397
(lp6398
(lp6399
I16
aI170
aF3.1e-20
aassS'BGC0000488|cirC'
p6400
(dp6401
S'PF01944'
p6402
(lp6403
(lp6404
I34
aI182
aF7.900000000000001e-25
aassS'BGC0000611|sioM'
p6405
(dp6406
S'PF00881'
p6407
(lp6408
(lp6409
I135
aI259
aF3.1e-06
aassS'BGC0001388|gaeT'
p6410
(dp6411
S'PF00005'
p6412
(lp6413
(lp6414
I501
aI651
aF1.3000000000000001e-30
aasS'PF00664'
p6415
(lp6416
(lp6417
I169
aI439
aF1.3999999999999998e-60
aasS'PF03412'
p6418
(lp6419
(lp6420
I7
aI143
aF4.5e-43
aassS'BGC0000488|cirD'
p6421
(dp6422
S'PF00005'
p6423
(lp6424
(lp6425
I28
aI169
aF1.4999999999999998e-20
aassS'BGC0000488|cirG'
p6426
(dp6427
S'PF13533'
p6428
(lp6429
(lp6430
I86
aI128
aF1.4e-10
aasS'PF16576'
p6431
(lp6432
(lp6433
I206
aI344
aF5.5e-14
aassS'BGC0000611|sioI'
p6434
(dp6435
S'PF12697'
p6436
(lp6437
(lp6438
I4
aI212
aF9e-12
aassS'BGC0000575|larC'
p6439
(dp6440
S'PF05402'
p6441
(lp6442
(lp6443
I18
aI83
aF9.000000000000001e-15
aassS'BGC0000515|spaE'
p6444
(dp6445
S'PF12730'
p6446
(lp6447
(lp6448
I6
aI171
aF7.6e-09
aassS'BGC0000609|nocL'
p6449
(dp6450
S'PF06968'
p6451
(lp6452
(lp6453
I257
aI359
aF8.800000000000001e-09
aassS'BGC0000498|bovR'
p6454
(dp6455
S'PF00196'
p6456
(lp6457
(lp6458
I136
aI190
aF7.500000000000001e-15
aasS'PF00072'
p6459
(lp6460
(lp6461
I3
aI117
aF3.4e-14
aassS'BGC0000483|MICCA_2630004'
p6462
(dp6463
S'PF08241'
p6464
(lp6465
(lp6466
I64
aI162
aF3e-19
aassS'BGC0000483|MICCA_2630005'
p6467
(dp6468
S'PF02624'
p6469
(lp6470
(lp6471
I407
aI738
aF2.1e-96
aassS'BGC0000483|MICCA_2630007'
p6472
(dp6473
S'PF00082'
p6474
(lp6475
(lp6476
I14
aI254
aF4.5e-32
aassS'BGC0000534|mukM'
p6477
(dp6478
S'PF13575'
p6479
(lp6480
(lp6481
I92
aI463
aF2.2000000000000004e-61
aasS'PF05147'
p6482
(lp6483
(lp6484
I582
aI920
aF5.7e-55
aassS'BGC0000609|nocG'
p6485
(dp6486
S'PF02624'
p6487
(lp6488
(lp6489
I247
aI587
aF2.9999999999999997e-80
aassS'BGC0000609|nocD'
p6490
(dp6491
S'PF14028'
p6492
(lp6493
(lp6494
I2
aI302
aF5.7e-54
aassS'BGC0000500|crnA2'
p6495
(dp6496
S'PF16934'
p6497
(lp6498
(lp6499
I4
aI47
aF7.7e-12
aassS'BGC0000609|nocB'
p6500
(dp6501
S'PF00067'
p6502
(lp6503
(lp6504
I265
aI362
aF2.7000000000000002e-12
aassS'BGC0000609|nocC'
p6505
(dp6506
S'PF00067'
p6507
(lp6508
(lp6509
I193
aI396
aF7.4e-27
aassS'BGC0000574|Cseg_2569'
p6510
(dp6511
S'PF00392'
p6512
(lp6513
(lp6514
I22
aI73
aF6.700000000000001e-10
aassS'BGC0000498|bovA'
p6515
(dp6516
S'PF04604'
p6517
(lp6518
(lp6519
I1
aI51
aF1.1000000000000002e-17
aassS'BGC0000518|SSQG_07266'
p6520
(dp6521
S'PF00072'
p6522
(lp6523
(lp6524
I6
aI116
aF3.3999999999999996e-06
aassS'BGC0000498|bovE'
p6525
(dp6526
S'PF12730'
p6527
(lp6528
(lp6529
I4
aI182
aF1.5000000000000002e-08
aassS'BGC0000570|Astex_2230'
p6530
(dp6531
S'PF00733'
p6532
(lp6533
(lp6534
I204
aI365
aF6.3e-10
aa(lp6535
I448
aI529
aF4.8e-06
aassS'BGC0000498|bovF'
p6536
(dp6537
S'PF00005'
p6538
(lp6539
(lp6540
I18
aI157
aF1.1999999999999999e-28
aassS'BGC0000609|nocU'
p6541
(dp6542
S'PF00067'
p6543
(lp6544
(lp6545
I273
aI375
aF1.2e-18
aassS'BGC0000609|nocR'
p6546
(dp6547
S'PF00903'
p6548
(lp6549
(lp6550
I29
aI144
aF0.00028
aassS'BGC0000547|salivB0678'
p6551
(dp6552
S'PF01473'
p6553
(lp6554
(lp6555
I553
aI570
aF0.012
aa(lp6556
I596
aI614
aF0.016
aa(lp6557
I474
aI486
aF0.064
aa(lp6558
I408
aI427
aF0.095
aassS'BGC0000609|nocP'
p6559
(dp6560
S'PF03704'
p6561
(lp6562
(lp6563
I109
aI253
aF3.5e-41
aasS'PF00486'
p6564
(lp6565
(lp6566
I25
aI73
aF7.2e-07
aassS'BGC0000609|nocQ'
p6567
(dp6568
S'PF13649'
p6569
(lp6570
(lp6571
I57
aI151
aF1.3e-16
aassS'BGC0000530|SMU76_03170'
p6572
(dp6573
S'PF14028'
p6574
(lp6575
(lp6576
I724
aI970
aF1.4e-15
aasS'PF04738'
p6577
(lp6578
(lp6579
I38
aI662
aF5.0999999999999995e-117
aassS'BGC0000620|BAM66975.1'
p6580
(dp6581
S'PF03703'
p6582
(lp6583
(lp6584
I78
aI145
aF3.1e-05
aassS'BGC0000614|ACN52310.1'
p6585
(dp6586
S'PF12146'
p6587
(lp6588
(lp6589
I27
aI253
aF1e-54
aassS'BGC0001155|pbtB1'
p6590
(dp6591
S'PF04738'
p6592
(lp6593
(lp6594
I128
aI370
aF1.4999999999999998e-20
aa(lp6595
I578
aI732
aF5.999999999999999e-20
aassS'BGC0000609|noc-5'
p6596
(dp6597
S'PF00725'
p6598
(lp6599
(lp6600
I176
aI272
aF3.7e-27
aasS'PF02737'
p6601
(lp6602
(lp6603
I2
aI173
aF1.7e-42
aassS'BGC0000468|bmbB'
p6604
(dp6605
S'PF04055'
p6606
(lp6607
(lp6608
I261
aI417
aF2.7e-07
aassS'BGC0000594|mvdA'
p6609
(dp6610
S'PF00005'
p6611
(lp6612
(lp6613
I392
aI529
aF5.2e-19
aasS'PF06472'
p6614
(lp6615
(lp6616
I49
aI301
aF1.3000000000000002e-42
aassS'BGC0000594|mvdB'
p6617
(dp6618
S'PF13302'
p6619
(lp6620
(lp6621
I57
aI160
aF2.7e-19
aassS'BGC0001229|SBI_06988'
p6622
(dp6623
S'PF13575'
p6624
(lp6625
(lp6626
I158
aI527
aF3.7e-81
aasS'PF05147'
p6627
(lp6628
(lp6629
I658
aI1002
aF6e-42
aassS'BGC0000594|mvdE'
p6630
(dp6631
S'PF12559'
p6632
(lp6633
(lp6634
I4
aI47
aF1.8000000000000002e-09
aassS'BGC0001291|enkB3'
p6635
(dp6636
S'PF00005'
p6637
(lp6638
(lp6639
I21
aI147
aF1.6000000000000002e-10
aassS'BGC0001407|BCSJ1_09318'
p6640
(dp6641
S'PF13575'
p6642
(lp6643
(lp6644
I207
aI578
aF1.6e-102
aassS'BGC0000622|ABS44970.1'
p6645
(dp6646
S'PF00082'
p6647
(lp6648
(lp6649
I23
aI284
aF2.2e-46
aassS'BGC0001364|G339_RS33385'
p6650
(dp6651
S'PF00005'
p6652
(lp6653
(lp6654
I33
aI175
aF4.2000000000000004e-32
aassS'BGC0000614|ACN52311.1'
p6655
(dp6656
S'PF00155'
p6657
(lp6658
(lp6659
I34
aI329
aF4.2e-44
aassS'BGC0000604|tpdQ'
p6660
(dp6661
S'PF00067'
p6662
(lp6663
(lp6664
I224
aI309
aF5.5999999999999995e-14
aassS'BGC0000521|tpase'
p6665
(dp6666
S'PF01609'
p6667
(lp6668
(lp6669
I116
aI365
aF1.1e-34
aassS'BGC0000469|AFV25477.1'
p6670
(dp6671
S'PF00367'
p6672
(lp6673
(lp6674
I7
aI39
aF1.1000000000000001e-13
aassS'BGC0000615|tpa8'
p6675
(dp6676
S'PF00164'
p6677
(lp6678
(lp6679
I12
aI123
aF9.7e-42
aassS'BGC0000571|RBRH_03778'
p6680
(dp6681
S'PF00005'
p6682
(lp6683
(lp6684
I360
aI509
aF1.3e-35
aasS'PF00664'
p6685
(lp6686
(lp6687
I28
aI296
aF1.7e-25
aassS'BGC0000537|nsuB'
p6688
(dp6689
S'PF14028'
p6690
(lp6691
(lp6692
I732
aI870
aF1.3000000000000002e-18
aasS'PF04738'
p6693
(lp6694
(lp6695
I37
aI658
aF4.2e-88
aassS'BGC0000595|SCO2443'
p6696
(dp6697
S'PF07158'
p6698
(lp6699
(lp6700
I1
aI149
aF3.8e-68
aassS'BGC0001364|G339_RS36605'
p6701
(dp6702
S'PF13560'
p6703
(lp6704
(lp6705
I5
aI84
aF5.5000000000000006e-17
aassS'BGC0000518|SSQG_07269'
p6706
(dp6707
S'PF08447'
p6708
(lp6709
(lp6710
I221
aI303
aF2.6e-09
aasS'PF07228'
p6711
(lp6712
(lp6713
I529
aI711
aF1.8e-46
aasS'PF13581'
p6714
(lp6715
(lp6716
I729
aI821
aF5e-08
aasS'PF13185'
p6717
(lp6718
(lp6719
I62
aI189
aF1.2e-06
aassS'BGC0000604|tpdR'
p6720
(dp6721
S'PF00440'
p6722
(lp6723
(lp6724
I14
aI60
aF1.6e-16
aassS'BGC0000571|RBRH_03776'
p6725
(dp6726
S'PF13471'
p6727
(lp6728
(lp6729
I155
aI265
aF1.2e-18
aassS'BGC0000620|BAM66978.1'
p6730
(dp6731
S'PF00005'
p6732
(lp6733
(lp6734
I2
aI126
aF2.1000000000000002e-15
aassS'BGC0000621|AAA23730.1'
p6735
(dp6736
S'PF02048'
p6737
(lp6738
(lp6739
I20
aI71
aF5.1e-19
aassS'BGC0000472|ADA00394.1'
p6740
(dp6741
S'PF08869'
p6742
(lp6743
(lp6744
I1
aI110
aF1.2e-48
aassS'BGC0000479|AED99441.1'
p6745
(dp6746
S'PF04365'
p6747
(lp6748
(lp6749
I5
aI81
aF8.1e-25
aassS'BGC0000501|Caci_4243'
p6750
(dp6751
S'PF00005'
p6752
(lp6753
(lp6754
I350
aI495
aF7.3e-22
aassS'BGC0000501|Caci_4242'
p6755
(dp6756
S'PF00005'
p6757
(lp6758
(lp6759
I335
aI478
aF6.3e-20
aasS'PF00664'
p6760
(lp6761
(lp6762
I19
aI277
aF9.400000000000001e-15
aassS'BGC0000627|AFLA_095090'
p6763
(dp6764
S'PF11951'
p6765
(lp6766
(lp6767
I51
aI305
aF8e-30
aassS'BGC0000556|srtC'
p6768
(dp6769
S'PF05147'
p6770
(lp6771
(lp6772
I42
aI414
aF9.199999999999999e-78
aassS'BGC0001157|SCAB_56671'
p6773
(dp6774
S'PF02624'
p6775
(lp6776
(lp6777
I44
aI320
aF1.3e-06
aassS'BGC0000531|mutP'
p6778
(dp6779
S'PF00082'
p6780
(lp6781
(lp6782
I130
aI435
aF3.3e-42
aassS'BGC0000600|thnD'
p6783
(dp6784
S'PF00005'
p6785
(lp6786
(lp6787
I19
aI158
aF2.8e-25
aassS'BGC0000627|AFLA_094950'
p6788
(dp6789
S'PF00743'
p6790
(lp6791
(lp6792
I7
aI220
aF3.7999999999999996e-28
aassS'BGC0000577|SJA_P1-00930'
p6793
(dp6794
S'PF07676'
p6795
(lp6796
(lp6797
I143
aI165
aF0.0053
aasS'PF00326'
p6798
(lp6799
(lp6800
I518
aI679
aF2.2e-11
aassS'BGC0000577|SJA_P1-00980'
p6801
(dp6802
S'PF01381'
p6803
(lp6804
(lp6805
I26
aI62
aF4.7000000000000004e-05
aassS'BGC0000609|noc-8'
p6806
(dp6807
S'PF02771'
p6808
(lp6809
(lp6810
I6
aI104
aF1.2e-09
aasS'PF00441'
p6811
(lp6812
(lp6813
I220
aI360
aF1.8e-29
aasS'PF02770'
p6814
(lp6815
(lp6816
I108
aI198
aF2.6e-20
aassS'BGC0000564|sagH'
p6817
(dp6818
S'PF12698'
p6819
(lp6820
(lp6821
I23
aI370
aF7.599999999999999e-34
aassS'BGC0000566|sagB'
p6822
(dp6823
S'PF00881'
p6824
(lp6825
(lp6826
I125
aI311
aF1e-31
aassS'BGC0000590|ACP43452.1'
p6827
(dp6828
S'PF00005'
p6829
(lp6830
(lp6831
I513
aI661
aF7.500000000000001e-32
aasS'PF00664'
p6832
(lp6833
(lp6834
I181
aI447
aF1.3000000000000002e-42
aasS'PF03412'
p6835
(lp6836
(lp6837
I24
aI151
aF1.9e-41
aassS'BGC0000531|mutC'
p6838
(dp6839
S'PF05147'
p6840
(lp6841
(lp6842
I41
aI408
aF1.1e-49
aassS'BGC0000578|SSGG_RS13895'
p6843
(dp6844
S'PF00005'
p6845
(lp6846
(lp6847
I403
aI551
aF3.4e-31
aasS'PF00664'
p6848
(lp6849
(lp6850
I73
aI336
aF3.4e-39
aassS'BGC0000600|thnT'
p6851
(dp6852
S'PF00005'
p6853
(lp6854
(lp6855
I365
aI512
aF5.6e-28
aasS'PF00664'
p6856
(lp6857
(lp6858
I34
aI299
aF2.5e-32
aassS'BGC0000546|SSHG_03588'
p6859
(dp6860
S'PF00069'
p6861
(lp6862
(lp6863
I290
aI481
aF8.5e-13
aassS'BGC0000531|mutD'
p6864
(dp6865
S'PF02441'
p6866
(lp6867
(lp6868
I8
aI166
aF2.4e-32
aassS'BGC0000600|thnP'
p6869
(dp6870
S'PF00082'
p6871
(lp6872
(lp6873
I137
aI439
aF2.6e-41
aassS'BGC0000479|AED99428.1'
p6874
(dp6875
S'PF05685'
p6876
(lp6877
(lp6878
I11
aI183
aF6.4e-30
aassS'BGC0000537|nsuP'
p6879
(dp6880
S'PF00082'
p6881
(lp6882
(lp6883
I147
aI420
aF5.2e-35
aassS'BGC0000578|SSGG_RS0132785'
p6884
(dp6885
S'PF00733'
p6886
(lp6887
(lp6888
I239
aI308
aF2.2999999999999997e-07
aassS'BGC0000615|tpa2'
p6889
(dp6890
S'PF00687'
p6891
(lp6892
(lp6893
I31
aI219
aF2e-54
aassS'BGC0000603|cltI'
p6894
(dp6895
S'PF13586'
p6896
(lp6897
(lp6898
I20
aI62
aF2e-07
aassS'BGC0000468|bmbE'
p6899
(dp6900
S'PF02624'
p6901
(lp6902
(lp6903
I91
aI431
aF7e-34
aassS'BGC0000553|SSGG_RS0133200'
p6904
(dp6905
S'PF00005'
p6906
(lp6907
(lp6908
I23
aI53
aF1.2e-05
aassS'BGC0000504|clyB'
p6909
(dp6910
S'PF00005'
p6911
(lp6912
(lp6913
I488
aI639
aF2.4e-34
aasS'PF03412'
p6914
(lp6915
(lp6916
I4
aI132
aF5.3e-41
aasS'PF00664'
p6917
(lp6918
(lp6919
I159
aI424
aF7.7e-22
aassS'BGC0000501|Caci_4239'
p6920
(dp6921
S'PF00069'
p6922
(lp6923
(lp6924
I237
aI428
aF2.4e-10
aassS'BGC0000596|SSPG_05081'
p6925
(dp6926
S'PF06723'
p6927
(lp6928
(lp6929
I17
aI339
aF5.1e-111
aassS'BGC0000504|clyA'
p6930
(dp6931
S'PF00082'
p6932
(lp6933
(lp6934
I133
aI397
aF5.7e-35
aassS'BGC0000602|ywiA'
p6935
(dp6936
S'PF05402'
p6937
(lp6938
(lp6939
I40
aI95
aF3.1e-06
aasS'PF13186'
p6940
(lp6941
(lp6942
I344
aI408
aF5.6e-09
aasS'PF04055'
p6943
(lp6944
(lp6945
I124
aI278
aF2.8999999999999996e-21
aassS'BGC0000495|ACR33037.1'
p6946
(dp6947
S'PF01670'
p6948
(lp6949
(lp6950
I42
aI200
aF3.6e-16
aassS'BGC0000504|clyM'
p6951
(dp6952
S'PF13575'
p6953
(lp6954
(lp6955
I200
aI568
aF7.7e-95
aasS'PF05147'
p6956
(lp6957
(lp6958
I689
aI989
aF2.2000000000000003e-51
aassS'BGC0000511|AAL15568.1'
p6959
(dp6960
S'PF05147'
p6961
(lp6962
(lp6963
I22
aI112
aF5.6e-18
aassS'BGC0000603|cltK'
p6964
(dp6965
S'PF00881'
p6966
(lp6967
(lp6968
I8
aI80
aF3e-19
aassS'BGC0000508|epiY_'
p6969
(dp6970
S'PF00005'
p6971
(lp6972
(lp6973
I210
aI275
aF5.9e-13
aasS'PF00664'
p6974
(lp6975
(lp6976
I1
aI149
aF4.3e-17
aassS'BGC0000610|nosP'
p6977
(dp6978
S'PF03704'
p6979
(lp6980
(lp6981
I163
aI305
aF6.6e-45
aasS'PF00486'
p6982
(lp6983
(lp6984
I74
aI128
aF0.00014
aassS'BGC0000599|AED99784.1'
p6985
(dp6986
S'PF04055'
p6987
(lp6988
(lp6989
I110
aI262
aF2.1000000000000002e-14
aassS'BGC0001170|CLOSPO_RS15785'
p6990
(dp6991
S'PF00005'
p6992
(lp6993
(lp6994
I19
aI162
aF2.2999999999999997e-34
aassS'BGC0000537|nsuR'
p6995
(dp6996
S'PF00072'
p6997
(lp6998
(lp6999
I4
aI112
aF2.2e-28
aasS'PF00486'
p7000
(lp7001
(lp7002
I151
aI224
aF2e-16
aassS'BGC0001210|bpmyx0001_45500'
p7003
(dp7004
S'PF12730'
p7005
(lp7006
(lp7007
I9
aI181
aF1.5e-11
aassS'BGC0000529|mibU'
p7008
(dp7009
S'PF01061'
p7010
(lp7011
(lp7012
I47
aI254
aF6.1e-27
aassS'BGC0000529|mibT'
p7013
(dp7014
S'PF00005'
p7015
(lp7016
(lp7017
I22
aI165
aF2.5e-27
aassS'BGC0000606|lazB'
p7018
(dp7019
S'PF04738'
p7020
(lp7021
(lp7022
I157
aI814
aF3.0000000000000003e-31
aassS'BGC0000495|ACR33065.1'
p7023
(dp7024
S'PF13419'
p7025
(lp7026
(lp7027
I36
aI192
aF3.6e-05
aassS'BGC0000529|mibQ'
p7028
(dp7029
S'PF10709'
p7030
(lp7031
(lp7032
I50
aI95
aF2.9e-05
aassS'BGC0000588|cmi'
p7033
(dp7034
S'PF13995'
p7035
(lp7036
(lp7037
I36
aI123
aF4.9000000000000005e-12
aassS'BGC0000529|mibS'
p7038
(dp7039
S'PF01613'
p7040
(lp7041
(lp7042
I20
aI167
aF1.1e-28
aassS'BGC0000609|nocE'
p7043
(dp7044
S'PF04738'
p7045
(lp7046
(lp7047
I129
aI758
aF4.2e-49
aassS'BGC0000535|nisB'
p7048
(dp7049
S'PF14028'
p7050
(lp7051
(lp7052
I737
aI885
aF4.2000000000000004e-15
aasS'PF04738'
p7053
(lp7054
(lp7055
I39
aI664
aF2.9e-84
aassS'BGC0000603|cltN'
p7056
(dp7057
S'PF07110'
p7058
(lp7059
(lp7060
I9
aI95
aF4.3e-17
aassS'BGC0000495|ACR33039.1'
p7061
(dp7062
S'PF00383'
p7063
(lp7064
(lp7065
I6
aI104
aF6.2e-08
aassS'BGC0000529|mibX'
p7066
(dp7067
S'PF04542'
p7068
(lp7069
(lp7070
I54
aI119
aF6.3e-14
aasS'PF08281'
p7071
(lp7072
(lp7073
I150
aI202
aF2e-13
aassS'BGC0000603|ACS50137.1'
p7074
(dp7075
S'PF13643'
p7076
(lp7077
(lp7078
I167
aI243
aF7.4e-11
aassS'BGC0000471|Osc7112_3655'
p7079
(dp7080
S'PF00881'
p7081
(lp7082
(lp7083
I270
aI464
aF2.4999999999999998e-11
aasS'PF00082'
p7084
(lp7085
(lp7086
I688
aI908
aF2.4000000000000002e-17
aassS'BGC0000529|mibD'
p7087
(dp7088
S'PF02441'
p7089
(lp7090
(lp7091
I16
aI180
aF3.2999999999999997e-28
aassS'BGC0000549|slvK'
p7092
(dp7093
S'PF00512'
p7094
(lp7095
(lp7096
I232
aI289
aF4.2000000000000005e-10
aasS'PF02518'
p7097
(lp7098
(lp7099
I339
aI444
aF7.1e-08
aassS'BGC0000529|mibF'
p7100
(dp7101
S'PF00005'
p7102
(lp7103
(lp7104
I19
aI156
aF2e-24
aassS'BGC0000529|mibA'
p7105
(dp7106
S'PF02052'
p7107
(lp7108
(lp7109
I11
aI57
aF1.8999999999999998e-06
aassS'BGC0000558|uvrX'
p7110
(dp7111
S'PF11798'
p7112
(lp7113
(lp7114
I176
aI208
aF2.1000000000000003e-08
aasS'PF00817'
p7115
(lp7116
(lp7117
I15
aI160
aF5.7e-25
aassS'BGC0000529|mibC'
p7118
(dp7119
S'PF05147'
p7120
(lp7121
(lp7122
I65
aI460
aF9.2e-47
aassS'BGC0000529|mibB'
p7123
(dp7124
S'PF14028'
p7125
(lp7126
(lp7127
I819
aI1100
aF2.3999999999999996e-29
aasS'PF04738'
p7128
(lp7129
(lp7130
I91
aI749
aF5e-184
aassS'BGC0000530|SMU76_03175'
p7131
(dp7132
S'PF05147'
p7133
(lp7134
(lp7135
I41
aI407
aF7.8e-55
aassS'BGC0000555|BAB78444.1'
p7136
(dp7137
S'PF00005'
p7138
(lp7139
(lp7140
I16
aI146
aF1.1000000000000001e-23
aassS'BGC0000529|mibO'
p7141
(dp7142
S'PF00067'
p7143
(lp7144
(lp7145
I285
aI386
aF8.9e-22
aassS'BGC0000529|mibN'
p7146
(dp7147
S'PF00999'
p7148
(lp7149
(lp7150
I17
aI404
aF1.9e-56
aassS'BGC0000469|AFV25476.1'
p7151
(dp7152
S'PF01138'
p7153
(lp7154
(lp7155
I11
aI141
aF1.9e-25
aasS'PF03725'
p7156
(lp7157
(lp7158
I162
aI226
aF2.8e-10
aassS'BGC0000468|bmbG'
p7159
(dp7160
S'PF00561'
p7161
(lp7162
(lp7163
I20
aI120
aF5.3e-10
aassS'BGC0000469|botP'
p7164
(dp7165
S'PF02789'
p7166
(lp7167
(lp7168
I43
aI148
aF1.2e-13
aasS'PF00883'
p7169
(lp7170
(lp7171
I179
aI490
aF2.8e-101
aassS'BGC0000479|pagG'
p7172
(dp7173
S'PF00082'
p7174
(lp7175
(lp7176
I23
aI314
aF5.099999999999999e-21
aassS'BGC0000603|cltB'
p7177
(dp7178
S'PF02624'
p7179
(lp7180
(lp7181
I275
aI635
aF7.3e-94
aassS'BGC0000514|gdmA'
p7182
(dp7183
S'PF02052'
p7184
(lp7185
(lp7186
I1
aI52
aF1.4999999999999999e-36
aassS'BGC0000495|ACR33061.1'
p7187
(dp7188
S'PF05050'
p7189
(lp7190
(lp7191
I37
aI176
aF1.3999999999999999e-14
aassS'BGC0000627|AFLA_095030'
p7192
(dp7193
S'PF01019'
p7194
(lp7195
(lp7196
I72
aI575
aF3.8999999999999998e-149
aassS'BGC0000557|tnpA'
p7197
(dp7198
S'PF13276'
p7199
(lp7200
(lp7201
I123
aI173
aF7.6e-09
aasS'PF13333'
p7202
(lp7203
(lp7204
I310
aI348
aF0.00013
aasS'PF00665'
p7205
(lp7206
(lp7207
I204
aI319
aF8.699999999999999e-32
aasS'PF01527'
p7208
(lp7209
(lp7210
I1
aI65
aF8.800000000000001e-10
aassS'BGC0001209|STER_1358'
p7211
(dp7212
S'PF01381'
p7213
(lp7214
(lp7215
I9
aI61
aF1.8999999999999998e-07
aassS'BGC0000590|ACP43448.1'
p7216
(dp7217
S'PF00816'
p7218
(lp7219
(lp7220
I41
aI135
aF7.6e-18
aassS'BGC0000539|nukF'
p7221
(dp7222
S'PF00005'
p7223
(lp7224
(lp7225
I21
aI161
aF1e-29
aassS'BGC0000582|ADR72969.1'
p7226
(dp7227
S'PF07221'
p7228
(lp7229
(lp7230
I434
aI510
aF0.081
aa(lp7231
I220
aI314
aF0.1
aasS'PF03190'
p7232
(lp7233
(lp7234
I3
aI163
aF1.4999999999999998e-74
aassS'BGC0000514|gdmE'
p7235
(dp7236
S'PF12730'
p7237
(lp7238
(lp7239
I3
aI177
aF1e-09
aassS'BGC0000616|RBAM_029200'
p7240
(dp7241
S'PF01944'
p7242
(lp7243
(lp7244
I14
aI146
aF9.4e-22
aassS'BGC0000528|clvM'
p7245
(dp7246
S'PF13575'
p7247
(lp7248
(lp7249
I196
aI571
aF2.6000000000000005e-86
aasS'PF05147'
p7250
(lp7251
(lp7252
I701
aI1043
aF3.5e-41
aassS'BGC0000603|cltF'
p7253
(dp7254
S'PF14028'
p7255
(lp7256
(lp7257
I19
aI331
aF7.2e-77
aassS'BGC0001157|SCAB_56701'
p7258
(dp7259
S'PF04072'
p7260
(lp7261
(lp7262
I16
aI170
aF1.4e-18
aassS'BGC0000555|BAB78440.1'
p7263
(dp7264
S'PF13575'
p7265
(lp7266
(lp7267
I152
aI504
aF1e-64
aasS'PF05147'
p7268
(lp7269
(lp7270
I623
aI960
aF1.7e-66
aassS'BGC0000495|ACR33063.1'
p7271
(dp7272
S'PF00196'
p7273
(lp7274
(lp7275
I148
aI203
aF4.7e-14
aasS'PF13185'
p7276
(lp7277
(lp7278
I1
aI128
aF2.3e-09
aassS'BGC0001392|Cpin_5324'
p7279
(dp7280
S'PF00593'
p7281
(lp7282
(lp7283
I258
aI698
aF7.3e-33
aasS'PF07715'
p7284
(lp7285
(lp7286
I60
aI158
aF5.599999999999999e-13
aassS'BGC0000508|epiP'
p7287
(dp7288
S'PF00082'
p7289
(lp7290
(lp7291
I141
aI451
aF1.1e-46
aassS'BGC0001392|Cpin_5326'
p7292
(dp7293
S'PF05147'
p7294
(lp7295
(lp7296
I43
aI402
aF6.4e-42
aassS'BGC0001392|Cpin_5327'
p7297
(dp7298
S'PF14028'
p7299
(lp7300
(lp7301
I76
aI266
aF2.8e-23
aa(lp7302
I5
aI56
aF1.3000000000000002e-10
aassS'BGC0001188|RZ84_RS20235'
p7303
(dp7304
S'PF00005'
p7305
(lp7306
(lp7307
I364
aI513
aF4.7999999999999995e-28
aasS'PF00664'
p7308
(lp7309
(lp7310
I24
aI291
aF8.199999999999998e-39
aassS'BGC0001392|Cpin_5321'
p7311
(dp7312
S'PF00005'
p7313
(lp7314
(lp7315
I17
aI160
aF1.1e-28
aassS'BGC0001392|Cpin_5322'
p7316
(dp7317
S'PF12040'
p7318
(lp7319
(lp7320
I283
aI436
aF1.6000000000000001e-38
aassS'BGC0001392|Cpin_5323'
p7321
(dp7322
S'PF12040'
p7323
(lp7324
(lp7325
I300
aI440
aF1.1e-11
aassS'BGC0000614|ACN52304.1'
p7326
(dp7327
S'PF00106'
p7328
(lp7329
(lp7330
I78
aI216
aF1.3999999999999998e-34
aa(lp7331
I11
aI57
aF6.2e-07
aassS'BGC0001392|Cpin_5328'
p7332
(dp7333
S'PF04738'
p7334
(lp7335
(lp7336
I131
aI773
aF3.5e-39
aassS'BGC0001392|Cpin_5329'
p7337
(dp7338
S'PF00005'
p7339
(lp7340
(lp7341
I511
aI660
aF3.9e-29
aasS'PF03412'
p7342
(lp7343
(lp7344
I11
aI131
aF1.6000000000000003e-31
aasS'PF00664'
p7345
(lp7346
(lp7347
I180
aI446
aF2.1e-26
aassS'BGC0000577|SJA_P1-00970'
p7348
(dp7349
S'PF00392'
p7350
(lp7351
(lp7352
I8
aI67
aF7.1e-13
aassS'BGC0000518|SSQG_07265'
p7353
(dp7354
S'PF07228'
p7355
(lp7356
(lp7357
I526
aI711
aF3.2999999999999997e-49
aasS'PF13185'
p7358
(lp7359
(lp7360
I331
aI469
aF5.900000000000001e-15
aasS'PF08448'
p7361
(lp7362
(lp7363
I198
aI280
aF2.6000000000000002e-05
aassS'BGC0000518|SSQG_07264'
p7364
(dp7365
S'PF02983'
p7366
(lp7367
(lp7368
I109
aI164
aF1.2e-14
aasS'PF00089'
p7369
(lp7370
(lp7371
I210
aI364
aF1.7e-13
aassS'BGC0000518|SSQG_07267'
p7372
(dp7373
S'PF00005'
p7374
(lp7375
(lp7376
I528
aI671
aF1.4999999999999998e-20
aassS'BGC0000536|niqB'
p7377
(dp7378
S'PF14028'
p7379
(lp7380
(lp7381
I737
aI986
aF2.7e-23
aasS'PF04738'
p7382
(lp7383
(lp7384
I39
aI664
aF4.4000000000000007e-91
aassS'BGC0000618|entI'
p7385
(dp7386
S'PF08951'
p7387
(lp7388
(lp7389
I15
aI89
aF1.3000000000000001e-12
aassS'BGC0001146|ctmB'
p7390
(dp7391
S'PF00881'
p7392
(lp7393
(lp7394
I352
aI513
aF4.4000000000000005e-09
aa(lp7395
I115
aI249
aF2.4e-07
aassS'BGC0000620|lnqQ'
p7396
(dp7397
S'PF11758'
p7398
(lp7399
(lp7400
I1
aI52
aF1.5e-28
aassS'BGC0000545|rumR2'
p7401
(dp7402
S'PF00072'
p7403
(lp7404
(lp7405
I4
aI101
aF3e-11
aassS'BGC0000562|CAA63706.1'
p7406
(dp7407
S'PF04604'
p7408
(lp7409
(lp7410
I3
aI46
aF8.2e-26
aassS'BGC0000531|mutA_'
p7411
(dp7412
S'PF02052'
p7413
(lp7414
(lp7415
I12
aI64
aF2.4999999999999998e-11
aassS'BGC0000618|entA'
p7416
(dp7417
S'PF01721'
p7418
(lp7419
(lp7420
I24
aI57
aF1.6e-20
aassS'BGC0000518|SSQG_07268'
p7421
(dp7422
S'PF00069'
p7423
(lp7424
(lp7425
I270
aI462
aF6.8e-10
aassS'BGC0000627|AFLA_095070'
p7426
(dp7427
S'PF07690'
p7428
(lp7429
(lp7430
I134
aI461
aF3.0000000000000002e-15
aassS'BGC0000619|gatX'
p7431
(dp7432
S'PF10439'
p7433
(lp7434
(lp7435
I3
aI60
aF5.9e-10
aassS'BGC0000598|poyH'
p7436
(dp7437
S'PF00112'
p7438
(lp7439
(lp7440
I87
aI302
aF1e-43
aassS'BGC0000619|gatR'
p7441
(dp7442
S'PF04397'
p7443
(lp7444
(lp7445
I168
aI256
aF5.3e-13
aasS'PF00072'
p7446
(lp7447
(lp7448
I5
aI135
aF2.1e-09
aassS'BGC0001392|Cpin_5318'
p7449
(dp7450
S'PF07690'
p7451
(lp7452
(lp7453
I14
aI356
aF4.400000000000001e-43
aassS'BGC0000528|clvR'
p7454
(dp7455
S'PF00196'
p7456
(lp7457
(lp7458
I161
aI217
aF2e-17
aasS'PF00072'
p7459
(lp7460
(lp7461
I10
aI124
aF3.1000000000000004e-25
aassS'BGC0000619|gatT'
p7462
(dp7463
S'PF00005'
p7464
(lp7465
(lp7466
I501
aI651
aF1.3000000000000001e-30
aasS'PF00664'
p7467
(lp7468
(lp7469
I169
aI439
aF1.3999999999999998e-60
aasS'PF03412'
p7470
(lp7471
(lp7472
I7
aI143
aF2.8000000000000002e-43
aassS'BGC0000619|gatK'
p7473
(dp7474
S'PF14501'
p7475
(lp7476
(lp7477
I320
aI427
aF1.1000000000000001e-10
aassS'BGC0000522|lnqZ'
p7478
(dp7479
S'PF11758'
p7480
(lp7481
(lp7482
I1
aI52
aF1e-27
aassS'BGC0000619|gatI'
p7483
(dp7484
S'PF17608'
p7485
(lp7486
(lp7487
I3
aI107
aF4.5e-13
aassS'BGC0001188|RZ84_RS20240'
p7488
(dp7489
S'PF13450'
p7490
(lp7491
(lp7492
I8
aI59
aF1.5000000000000002e-08
aassS'BGC0000609|noc5'
p7493
(dp7494
S'PF04239'
p7495
(lp7496
(lp7497
I94
aI161
aF8.199999999999999e-11
aassS'BGC0000612|BC_5078'
p7498
(dp7499
S'PF03946'
p7500
(lp7501
(lp7502
I9
aI66
aF7.000000000000001e-26
aasS'PF00298'
p7503
(lp7504
(lp7505
I71
aI139
aF7.6e-22
aassS'BGC0000479|pagA'
p7506
(dp7507
S'PF00082'
p7508
(lp7509
(lp7510
I20
aI261
aF1.6999999999999999e-35
aassS'BGC0000508|epiY'
p7511
(dp7512
S'PF00664'
p7513
(lp7514
(lp7515
I26
aI134
aF4.2e-12
aassS'BGC0000619|gatC'
p7516
(dp7517
S'PF13437'
p7518
(lp7519
(lp7520
I58
aI160
aF0.00015
aassS'BGC0000619|gatA'
p7521
(dp7522
S'PF10439'
p7523
(lp7524
(lp7525
I1
aI73
aF1.6e-11
aassS'BGC0000611|sioO'
p7526
(dp7527
S'PF02624'
p7528
(lp7529
(lp7530
I264
aI602
aF1.6000000000000001e-68
aassS'BGC0000613|tpdG'
p7531
(dp7532
S'PF02624'
p7533
(lp7534
(lp7535
I232
aI569
aF2.9e-81
aassS'BGC0000528|clvG'
p7536
(dp7537
S'PF12730'
p7538
(lp7539
(lp7540
I5
aI183
aF2.2000000000000003e-09
aassS'BGC0000528|clvF'
p7541
(dp7542
S'PF00005'
p7543
(lp7544
(lp7545
I21
aI161
aF1.3e-27
aass.