(dp0
S'BGC0001391'
p1
(lp2
S'PF13575'
p3
aS'PF05147'
p4
aS'PF13575'
p5
aS'PF05147'
p6
aS'PF00005'
p7
aS'PF14867'
p8
aS'PF03412'
p9
aS'PF00005'
p10
aS'PF00664'
p11
asS'BGC0001407'
p12
(lp13
S'PF03412'
p14
aS'PF00005'
p15
aS'PF00664'
p16
aS'PF00082'
p17
aS'PF05147'
p18
aS'PF03358'
p19
aS'PF13575'
p20
asS'BGC0001392'
p21
(lp22
S'PF12802'
p23
aS'PF07690'
p24
aS'PF16576'
p25
aS'PF13533'
p26
aS'PF02321'
p27
aS'PF02321'
p28
aS'PF12833'
p29
aS'PF02311'
p30
aS'PF00593'
p31
aS'PF07715'
p32
aS'PF05147'
p33
aS'PF14028'
p34
aS'PF14028'
p35
aS'PF00005'
p36
aS'PF12040'
p37
aS'PF12040'
p38
aS'PF04738'
p39
aS'PF03412'
p40
aS'PF00005'
p41
aS'PF00664'
p42
aS'PF07690'
p43
asS'BGC0001176'
p44
(lp45
S'PF00005'
p46
aS'PF00664'
p47
aS'PF13471'
p48
aS'PF05402'
p49
aS'PF00733'
p50
asS'BGC0000597'
p51
(lp52
S'PF06723'
p53
aS'PF01614'
p54
aS'PF09339'
p55
aS'PF08450'
p56
aS'PF00501'
p57
aS'PF13193'
p58
aS'PF00082'
p59
asS'BGC0001398'
p60
(lp61
S'PF01494'
p62
aS'PF11951'
p63
aS'PF00172'
p64
aS'PF00264'
p65
aS'PF03572'
p66
aS'PF01432'
p67
aS'PF01432'
p68
aS'PF01565'
p69
aS'PF13561'
p70
aS'PF00172'
p71
aS'PF07883'
p72
aS'PF11807'
p73
aS'PF07690'
p74
aS'PF00005'
p75
aS'PF00005'
p76
aS'PF00664'
p77
aS'PF03169'
p78
aS'PF03169'
p79
aS'PF11807'
p80
aS'PF11807'
p81
aS'PF11807'
p82
asS'BGC0001157'
p83
(lp84
S'PF00067'
p85
aS'PF02310'
p86
aS'PF02624'
p87
aS'PF05977'
p88
aS'PF00883'
p89
aS'PF02789'
p90
aS'PF04055'
p91
aS'PF09860'
p92
aS'PF04055'
p93
aS'PF00561'
p94
aS'PF02624'
p95
aS'PF04072'
p96
asS'BGC0001155'
p97
(lp98
S'PF02624'
p99
aS'PF04055'
p100
aS'PF00891'
p101
aS'PF00177'
p102
aS'PF00164'
p103
aS'PF00009'
p104
aS'PF03764'
p105
aS'PF14492'
p106
aS'PF00679'
p107
aS'PF03144'
p108
aS'PF00009'
p109
aS'PF03143'
p110
aS'PF03144'
p111
aS'PF05175'
p112
aS'PF04055'
p113
aS'PF14028'
p114
aS'PF04738'
p115
aS'PF00881'
p116
aS'PF14028'
p117
aS'PF02624'
p118
aS'PF00067'
p119
aS'PF00067'
p120
aS'PF00440'
p121
aS'PF04738'
p122
aS'PF04738'
p123
asS'BGC0001311'
p124
(lp125
S'PF12730'
p126
aS'PF13483'
p127
aS'PF13575'
p128
aS'PF05147'
p129
aS'PF00005'
p130
aS'PF03412'
p131
aS'PF00005'
p132
aS'PF00664'
p133
aS'PF13575'
p134
aS'PF05147'
p135
asS'BGC0001289'
p136
(lp137
S'PF04738'
p138
aS'PF14028'
p139
aS'PF05147'
p140
aS'PF00920'
p141
aS'PF00005'
p142
aS'PF00664'
p143
aS'PF07883'
p144
aS'PF11256'
p145
aS'PF12833'
p146
aS'PF02311'
p147
asS'BGC0000608'
p148
(lp149
S'PF06968'
p150
aS'PF14028'
p151
aS'PF04055'
p152
asS'BGC0000609'
p153
(lp154
S'PF03860'
p155
aS'PF14028'
p156
aS'PF12697'
p157
aS'PF00501'
p158
aS'PF03704'
p159
aS'PF13191'
p160
aS'PF00109'
p161
aS'PF02801'
p162
aS'PF08990'
p163
aS'PF04055'
p164
aS'PF00881'
p165
aS'PF01041'
p166
aS'PF01408'
p167
aS'PF03559'
p168
aS'PF03559'
p169
aS'PF03559'
p170
aS'PF13649'
p171
aS'PF08484'
p172
aS'PF08421'
p173
aS'PF13489'
p174
aS'PF00201'
p175
aS'PF13579'
p176
aS'PF12849'
p177
aS'PF01596'
p178
aS'PF00550'
p179
aS'PF04542'
p180
aS'PF08281'
p181
aS'PF03795'
p182
aS'PF13847'
p183
aS'PF00011'
p184
aS'PF06968'
p185
aS'PF02624'
p186
aS'PF14028'
p187
aS'PF00067'
p188
aS'PF00067'
p189
aS'PF00067'
p190
aS'PF00903'
p191
aS'PF03704'
p192
aS'PF00486'
p193
aS'PF13649'
p194
aS'PF02737'
p195
aS'PF00725'
p196
aS'PF00441'
p197
aS'PF02770'
p198
aS'PF02771'
p199
aS'PF04738'
p200
aS'PF04239'
p201
asS'BGC0000604'
p202
(lp203
S'PF00891'
p204
aS'PF02624'
p205
aS'PF00881'
p206
aS'PF14028'
p207
aS'PF14028'
p208
aS'PF04055'
p209
aS'PF05175'
p210
aS'PF04738'
p211
aS'PF02624'
p212
aS'PF04738'
p213
aS'PF04055'
p214
aS'PF01872'
p215
aS'PF00067'
p216
aS'PF00440'
p217
asS'BGC0000605'
p218
(lp219
S'PF00005'
p220
aS'PF04738'
p221
aS'PF04738'
p222
aS'PF14028'
p223
aS'PF00881'
p224
aS'PF14028'
p225
aS'PF01061'
p226
aS'PF00440'
p227
aS'PF01546'
p228
aS'PF00067'
p229
aS'PF02624'
p230
asS'BGC0000606'
p231
(lp232
S'PF02624'
p233
aS'PF14028'
p234
aS'PF00881'
p235
aS'PF14028'
p236
aS'PF05147'
p237
aS'PF00069'
p238
aS'PF02633'
p239
aS'PF04738'
p240
asS'BGC0000607'
p241
(lp242
S'PF13614'
p243
aS'PF01695'
p244
aS'PF14028'
p245
aS'PF00106'
p246
aS'PF00298'
p247
aS'PF03946'
p248
aS'PF13561'
p249
aS'PF13411'
p250
aS'PF02624'
p251
aS'PF00665'
p252
aS'PF13333'
p253
aS'PF08708'
p254
aS'PF00665'
p255
aS'PF13518'
p256
aS'PF00589'
p257
asS'BGC0000600'
p258
(lp259
S'PF13346'
p260
aS'PF04055'
p261
aS'PF13186'
p262
aS'PF05402'
p263
aS'PF00392'
p264
aS'PF00005'
p265
aS'PF00664'
p266
aS'PF00005'
p267
aS'PF00082'
p268
asS'BGC0000601'
p269
(lp270
S'PF00005'
p271
aS'PF13905'
p272
aS'PF04055'
p273
aS'PF13186'
p274
aS'PF02517'
p275
asS'BGC0000602'
p276
(lp277
S'PF11420'
p278
aS'PF00675'
p279
aS'PF00005'
p280
aS'PF04055'
p281
aS'PF13186'
p282
aS'PF05402'
p283
asS'BGC0000582'
p284
(lp285
S'PF02441'
p286
aS'PF00005'
p287
aS'PF13424'
p288
aS'PF13191'
p289
aS'PF13424'
p290
aS'PF12697'
p291
aS'PF13649'
p292
aS'PF03190'
p293
aS'PF07221'
p294
aS'PF07221'
p295
asS'BGC0000558'
p296
(lp297
S'PF00664'
p298
aS'PF03412'
p299
aS'PF00005'
p300
aS'PF00817'
p301
aS'PF11798'
p302
asS'BGC0000533'
p303
(lp304
S'PF02441'
p305
aS'PF02052'
p306
aS'PF04738'
p307
aS'PF14028'
p308
aS'PF05147'
p309
aS'PF00005'
p310
aS'PF00664'
p311
aS'PF00082'
p312
aS'PF02052'
p313
asS'BGC0000549'
p314
(lp315
S'PF05598'
p316
aS'PF01609'
p317
aS'PF00082'
p318
aS'PF04738'
p319
aS'PF14028'
p320
aS'PF05147'
p321
aS'PF02052'
p322
aS'PF00005'
p323
aS'PF00072'
p324
aS'PF00486'
p325
aS'PF00005'
p326
aS'PF00512'
p327
aS'PF02518'
p328
asS'BGC0000548'
p329
(lp330
S'PF04604'
p331
aS'PF00005'
p332
aS'PF03412'
p333
aS'PF00664'
p334
aS'PF13575'
p335
aS'PF05147'
p336
aS'PF00072'
p337
aS'PF00196'
p338
aS'PF00005'
p339
asS'BGC0000543'
p340
(lp341
S'PF04738'
p342
aS'PF14028'
p343
aS'PF04738'
p344
aS'PF00082'
p345
aS'PF00664'
p346
aS'PF00005'
p347
aS'PF08130'
p348
aS'PF05147'
p349
asS'BGC0000542'
p350
(lp351
S'PF12730'
p352
aS'PF00005'
p353
aS'PF05147'
p354
aS'PF04738'
p355
aS'PF14028'
p356
aS'PF00005'
p357
asS'BGC0000541'
p358
(lp359
S'PF00005'
p360
aS'PF04738'
p361
aS'PF14028'
p362
aS'PF05147'
p363
aS'PF12730'
p364
aS'PF00005'
p365
asS'BGC0000540'
p366
(lp367
S'PF04738'
p368
aS'PF14028'
p369
aS'PF05857'
p370
aS'PF05147'
p371
aS'PF00082'
p372
aS'PF00664'
p373
aS'PF00005'
p374
aS'PF04647'
p375
aS'PF04397'
p376
aS'PF00072'
p377
aS'PF14501'
p378
asS'BGC0000547'
p379
(lp380
S'PF01610'
p381
aS'PF13542'
p382
aS'PF14690'
p383
aS'PF13575'
p384
aS'PF05147'
p385
aS'PF02518'
p386
aS'PF00512'
p387
aS'PF12730'
p388
aS'PF00005'
p389
aS'PF12730'
p390
aS'PF04604'
p391
aS'PF03412'
p392
aS'PF00005'
p393
aS'PF00664'
p394
aS'PF00072'
p395
aS'PF00486'
p396
aS'PF02324'
p397
aS'PF01473'
p398
aS'PF01473'
p399
aS'PF01473'
p400
aS'PF01473'
p401
aS'PF01473'
p402
aS'PF01473'
p403
aS'PF01473'
p404
aS'PF01473'
p405
aS'PF01473'
p406
asS'BGC0000546'
p407
(lp408
S'PF00196'
p409
aS'PF00005'
p410
aS'PF00005'
p411
aS'PF00664'
p412
aS'PF00069'
p413
asS'BGC0000545'
p414
(lp415
S'PF12730'
p416
aS'PF00005'
p417
aS'PF12730'
p418
aS'PF02518'
p419
aS'PF00512'
p420
aS'PF05147'
p421
aS'PF13575'
p422
aS'PF00072'
p423
aS'PF00486'
p424
aS'PF03412'
p425
aS'PF00005'
p426
aS'PF00664'
p427
aS'PF04604'
p428
aS'PF04604'
p429
aS'PF04604'
p430
aS'PF04203'
p431
aS'PF00072'
p432
asS'BGC0000544'
p433
(lp434
S'PF00005'
p435
aS'PF12730'
p436
aS'PF05147'
p437
aS'PF04738'
p438
aS'PF14028'
p439
aS'PF02052'
p440
aS'PF01061'
p441
aS'PF00005'
p442
aS'PF10709'
p443
aS'PF00005'
p444
aS'PF08281'
p445
aS'PF04542'
p446
asS'BGC0000613'
p447
(lp448
S'PF04055'
p449
aS'PF04738'
p450
aS'PF01546'
p451
aS'PF00067'
p452
aS'PF14028'
p453
aS'PF00067'
p454
aS'PF00067'
p455
aS'PF00881'
p456
aS'PF02624'
p457
aS'PF14028'
p458
aS'PF00440'
p459
aS'PF02624'
p460
asS'BGC0000612'
p461
(lp462
S'PF14028'
p463
aS'PF00881'
p464
aS'PF13411'
p465
aS'PF04738'
p466
aS'PF02624'
p467
aS'PF05721'
p468
aS'PF12681'
p469
aS'PF13561'
p470
aS'PF13649'
p471
aS'PF13302'
p472
aS'PF00005'
p473
aS'PF12848'
p474
aS'PF00005'
p475
aS'PF00106'
p476
aS'PF03946'
p477
aS'PF00298'
p478
aS'PF03946'
p479
aS'PF00298'
p480
asS'BGC0000611'
p481
(lp482
S'PF04738'
p483
aS'PF00501'
p484
aS'PF14028'
p485
aS'PF04072'
p486
aS'PF07366'
p487
aS'PF04738'
p488
aS'PF02771'
p489
aS'PF08028'
p490
aS'PF14028'
p491
aS'PF00005'
p492
aS'PF04055'
p493
aS'PF02310'
p494
aS'PF12146'
p495
aS'PF00733'
p496
aS'PF13537'
p497
aS'PF00494'
p498
aS'PF02687'
p499
aS'PF12704'
p500
aS'PF12704'
p501
aS'PF02687'
p502
aS'PF00756'
p503
aS'PF05729'
p504
aS'PF00106'
p505
aS'PF00067'
p506
aS'PF11066'
p507
aS'PF00155'
p508
aS'PF00881'
p509
aS'PF12697'
p510
aS'PF02624'
p511
asS'BGC0000610'
p512
(lp513
S'PF00687'
p514
aS'PF00164'
p515
aS'PF04997'
p516
aS'PF04998'
p517
aS'PF00623'
p518
aS'PF04983'
p519
aS'PF05000'
p520
aS'PF00623'
p521
aS'PF00562'
p522
aS'PF04561'
p523
aS'PF04565'
p524
aS'PF04560'
p525
aS'PF10385'
p526
aS'PF00466'
p527
aS'PF04738'
p528
aS'PF02624'
p529
aS'PF00067'
p530
aS'PF00542'
p531
aS'PF16320'
p532
aS'PF00009'
p533
aS'PF00177'
p534
aS'PF14028'
p535
aS'PF00067'
p536
aS'PF04055'
p537
aS'PF14028'
p538
aS'PF00501'
p539
aS'PF12697'
p540
aS'PF06968'
p541
aS'PF03704'
p542
aS'PF00486'
p543
asS'BGC0000617'
p544
(lp545
S'PF00664'
p546
aS'PF03412'
p547
aS'PF00005'
p548
aS'PF01076'
p549
aS'PF01721'
p550
aS'PF08951'
p551
asS'BGC0000616'
p552
(lp553
S'PF09221'
p554
aS'PF00005'
p555
aS'PF01944'
p556
asS'BGC0000615'
p557
(lp558
S'PF00177'
p559
aS'PF03946'
p560
aS'PF00298'
p561
aS'PF00466'
p562
aS'PF00542'
p563
aS'PF16320'
p564
aS'PF00562'
p565
aS'PF04565'
p566
aS'PF04561'
p567
aS'PF04560'
p568
aS'PF10385'
p569
aS'PF04997'
p570
aS'PF04998'
p571
aS'PF00623'
p572
aS'PF04983'
p573
aS'PF05000'
p574
aS'PF00623'
p575
aS'PF02624'
p576
aS'PF04705'
p577
aS'PF00588'
p578
aS'PF00465'
p579
aS'PF04738'
p580
aS'PF14028'
p581
aS'PF02624'
p582
aS'PF00009'
p583
aS'PF03764'
p584
aS'PF14492'
p585
aS'PF00679'
p586
aS'PF03144'
p587
aS'PF00009'
p588
aS'PF03143'
p589
aS'PF03144'
p590
aS'PF00164'
p591
aS'PF00687'
p592
asS'BGC0000614'
p593
(lp594
S'PF00501'
p595
aS'PF14028'
p596
aS'PF04738'
p597
aS'PF04738'
p598
aS'PF02624'
p599
aS'PF00881'
p600
aS'PF12697'
p601
aS'PF14028'
p602
aS'PF07366'
p603
aS'PF08028'
p604
aS'PF02771'
p605
aS'PF04072'
p606
aS'PF00067'
p607
aS'PF04055'
p608
aS'PF02310'
p609
aS'PF11066'
p610
aS'PF04738'
p611
aS'PF04738'
p612
aS'PF00733'
p613
aS'PF13537'
p614
aS'PF12146'
p615
aS'PF00155'
p616
aS'PF00106'
p617
aS'PF00106'
p618
asS'BGC0000619'
p619
(lp620
S'PF10439'
p621
aS'PF04397'
p622
aS'PF00072'
p623
aS'PF00664'
p624
aS'PF03412'
p625
aS'PF00005'
p626
aS'PF14501'
p627
aS'PF17608'
p628
aS'PF13437'
p629
aS'PF10439'
p630
asS'BGC0000618'
p631
(lp632
S'PF08951'
p633
aS'PF01721'
p634
asS'BGC0000556'
p635
(lp636
S'PF04738'
p637
aS'PF14028'
p638
aS'PF00005'
p639
aS'PF11083'
p640
aS'PF00005'
p641
aS'PF00072'
p642
aS'PF00486'
p643
aS'PF02518'
p644
aS'PF00512'
p645
aS'PF05147'
p646
asS'BGC0000538'
p647
(lp648
S'PF00005'
p649
aS'PF05147'
p650
aS'PF04738'
p651
aS'PF14028'
p652
aS'PF02052'
p653
asS'BGC0000539'
p654
(lp655
S'PF06970'
p656
aS'PF06970'
p657
aS'PF13614'
p658
aS'PF12730'
p659
aS'PF04604'
p660
aS'PF05147'
p661
aS'PF13575'
p662
aS'PF03412'
p663
aS'PF00664'
p664
aS'PF00005'
p665
aS'PF12730'
p666
aS'PF04397'
p667
aS'PF00072'
p668
aS'PF00005'
p669
asS'BGC0000536'
p670
(lp671
S'PF00005'
p672
aS'PF02052'
p673
aS'PF00072'
p674
aS'PF00486'
p675
aS'PF00005'
p676
aS'PF05147'
p677
aS'PF02518'
p678
aS'PF00512'
p679
aS'PF00082'
p680
aS'PF04738'
p681
aS'PF14028'
p682
asS'BGC0000537'
p683
(lp684
S'PF02052'
p685
aS'PF00005'
p686
aS'PF02518'
p687
aS'PF00512'
p688
aS'PF00005'
p689
aS'PF05147'
p690
aS'PF04738'
p691
aS'PF14028'
p692
aS'PF00082'
p693
aS'PF00072'
p694
aS'PF00486'
p695
asS'BGC0000534'
p696
(lp697
S'PF03412'
p698
aS'PF00005'
p699
aS'PF00664'
p700
aS'PF04604'
p701
aS'PF04604'
p702
aS'PF04604'
p703
aS'PF04604'
p704
aS'PF13575'
p705
aS'PF05147'
p706
asS'BGC0000535'
p707
(lp708
S'PF00005'
p709
aS'PF00072'
p710
aS'PF00486'
p711
aS'PF00005'
p712
aS'PF05147'
p713
aS'PF02052'
p714
aS'PF00512'
p715
aS'PF02518'
p716
aS'PF00082'
p717
aS'PF04738'
p718
aS'PF14028'
p719
asS'BGC0000532'
p720
(lp721
S'PF04604'
p722
aS'PF05147'
p723
aS'PF13575'
p724
asS'BGC0001388'
p725
(lp726
S'PF17608'
p727
aS'PF10439'
p728
aS'PF04397'
p729
aS'PF00072'
p730
aS'PF14501'
p731
aS'PF10439'
p732
aS'PF00664'
p733
aS'PF03412'
p734
aS'PF00005'
p735
asS'BGC0000530'
p736
(lp737
S'PF02441'
p738
aS'PF02052'
p739
aS'PF02052'
p740
aS'PF00082'
p741
aS'PF00664'
p742
aS'PF00005'
p743
aS'PF04738'
p744
aS'PF14028'
p745
aS'PF05147'
p746
asS'BGC0000531'
p747
(lp748
S'PF00664'
p749
aS'PF02052'
p750
aS'PF04738'
p751
aS'PF14028'
p752
aS'PF00082'
p753
aS'PF05147'
p754
aS'PF02441'
p755
aS'PF02052'
p756
asS'BGC0000598'
p757
(lp758
S'PF04055'
p759
aS'PF13610'
p760
aS'PF05175'
p761
aS'PF09394'
p762
aS'PF13575'
p763
aS'PF13621'
p764
aS'PF12146'
p765
aS'PF04055'
p766
aS'PF02310'
p767
aS'PF00112'
p768
asS'BGC0000599'
p769
(lp770
S'PF00005'
p771
aS'PF04055'
p772
aS'PF13186'
p773
aS'PF03572'
p774
aS'PF13346'
p775
aS'PF04055'
p776
asS'BGC0000590'
p777
(lp778
S'PF00529'
p779
aS'PF00664'
p780
aS'PF03412'
p781
aS'PF00005'
p782
aS'PF00816'
p783
asS'BGC0000591'
p784
(lp785
S'PF08443'
p786
aS'PF00497'
p787
aS'PF12559'
p788
asS'BGC0000592'
p789
(lp790
S'PF06472'
p791
aS'PF00005'
p792
aS'PF13302'
p793
aS'PF12559'
p794
asS'BGC0000593'
p795
(lp796
S'PF12559'
p797
asS'BGC0000594'
p798
(lp799
S'PF08241'
p800
aS'PF12559'
p801
aS'PF13561'
p802
aS'PF06472'
p803
aS'PF00005'
p804
aS'PF13302'
p805
aS'PF12559'
p806
asS'BGC0000595'
p807
(lp808
S'PF08450'
p809
aS'PF13450'
p810
aS'PF07729'
p811
aS'PF00392'
p812
aS'PF01614'
p813
aS'PF09339'
p814
aS'PF00082'
p815
aS'PF00501'
p816
aS'PF13193'
p817
aS'PF01039'
p818
aS'PF01039'
p819
aS'PF13365'
p820
aS'PF07728'
p821
aS'PF06723'
p822
aS'PF03704'
p823
aS'PF07714'
p824
aS'PF07158'
p825
asS'BGC0000596'
p826
(lp827
S'PF07158'
p828
aS'PF00501'
p829
aS'PF13193'
p830
aS'PF08450'
p831
aS'PF01614'
p832
aS'PF09339'
p833
aS'PF01039'
p834
aS'PF03704'
p835
aS'PF07714'
p836
aS'PF00082'
p837
aS'PF07728'
p838
aS'PF13365'
p839
aS'PF01039'
p840
aS'PF07729'
p841
aS'PF00392'
p842
aS'PF06723'
p843
asS'BGC0000627'
p844
(lp845
S'PF00266'
p846
aS'PF00067'
p847
aS'PF11807'
p848
aS'PF00743'
p849
aS'PF13450'
p850
aS'PF00743'
p851
aS'PF03572'
p852
aS'PF00264'
p853
aS'PF00172'
p854
aS'PF11951'
p855
aS'PF00743'
p856
aS'PF01019'
p857
aS'PF07690'
p858
asS'BGC0001229'
p859
(lp860
S'PF13575'
p861
aS'PF00005'
p862
aS'PF03412'
p863
aS'PF05147'
p864
aS'PF00664'
p865
aS'PF13575'
p866
aS'PF05147'
p867
asS'BGC0001222'
p868
(lp869
S'PF00005'
p870
aS'PF12173'
p871
aS'PF13346'
p872
aS'PF01944'
p873
asS'BGC0001226'
p874
(lp875
S'PF01061'
p876
aS'PF05147'
p877
aS'PF00069'
p878
aS'PF00005'
p879
asS'BGC0000529'
p880
(lp881
S'PF04820'
p882
aS'PF00005'
p883
aS'PF01061'
p884
aS'PF00005'
p885
aS'PF10709'
p886
aS'PF01613'
p887
aS'PF04542'
p888
aS'PF08281'
p889
aS'PF02441'
p890
aS'PF00005'
p891
aS'PF02052'
p892
aS'PF05147'
p893
aS'PF04738'
p894
aS'PF14028'
p895
aS'PF00067'
p896
aS'PF00999'
p897
asS'BGC0000528'
p898
(lp899
S'PF07730'
p900
aS'PF12730'
p901
aS'PF13575'
p902
aS'PF05147'
p903
aS'PF00072'
p904
aS'PF00196'
p905
aS'PF12730'
p906
aS'PF00005'
p907
asS'BGC0000525'
p908
(lp909
S'PF14867'
p910
aS'PF16934'
p911
aS'PF13575'
p912
aS'PF05147'
p913
asS'BGC0000491'
p914
(lp915
S'PF13346'
p916
aS'PF12173'
p917
aS'PF01944'
p918
aS'PF00005'
p919
asS'BGC0000527'
p920
(lp921
S'PF12730'
p922
aS'PF02518'
p923
aS'PF00512'
p924
aS'PF03412'
p925
aS'PF00005'
p926
aS'PF00664'
p927
aS'PF00005'
p928
aS'PF12730'
p929
aS'PF02441'
p930
aS'PF13575'
p931
aS'PF05147'
p932
aS'PF00072'
p933
aS'PF00486'
p934
aS'PF00486'
p935
asS'BGC0000526'
p936
(lp937
S'PF02518'
p938
aS'PF00512'
p939
aS'PF13575'
p940
aS'PF05147'
p941
aS'PF12730'
p942
aS'PF00005'
p943
aS'PF12730'
p944
aS'PF00072'
p945
aS'PF00486'
p946
aS'PF03412'
p947
aS'PF00005'
p948
aS'PF00664'
p949
aS'PF00872'
p950
aS'PF04604'
p951
aS'PF04604'
p952
aS'PF03432'
p953
aS'PF11083'
p954
aS'PF01381'
p955
aS'PF04604'
p956
asS'BGC0000521'
p957
(lp958
S'PF12730'
p959
aS'PF12730'
p960
aS'PF05147'
p961
aS'PF13575'
p962
aS'PF00005'
p963
aS'PF00664'
p964
aS'PF03412'
p965
aS'PF00005'
p966
aS'PF04604'
p967
aS'PF01609'
p968
asS'BGC0000520'
p969
(lp970
S'PF14867'
p971
asS'BGC0000523'
p972
(lp973
S'PF01610'
p974
aS'PF00005'
p975
aS'PF13732'
p976
aS'PF00082'
p977
aS'PF00664'
p978
aS'PF00005'
p979
aS'PF03358'
p980
aS'PF13575'
p981
aS'PF05147'
p982
aS'PF13610'
p983
aS'PF13610'
p984
aS'PF12698'
p985
aS'PF14690'
p986
aS'PF17363'
p987
asS'BGC0000522'
p988
(lp989
S'PF00005'
p990
aS'PF03703'
p991
aS'PF03703'
p992
aS'PF03703'
p993
aS'PF06543'
p994
aS'PF12844'
p995
aS'PF11758'
p996
asS'BGC0001291'
p997
(lp998
S'PF14501'
p999
aS'PF09221'
p1000
aS'PF04647'
p1001
aS'PF01758'
p1002
aS'PF01451'
p1003
aS'PF01758'
p1004
aS'PF00005'
p1005
asS'BGC0000589'
p1006
(lp1007
S'PF00664'
p1008
aS'PF03412'
p1009
aS'PF00005'
p1010
aS'PF13437'
p1011
aS'PF02794'
p1012
aS'PF17508'
p1013
aS'PF02517'
p1014
asS'BGC0000588'
p1015
(lp1016
S'PF06406'
p1017
aS'PF13437'
p1018
aS'PF00664'
p1019
aS'PF03412'
p1020
aS'PF00005'
p1021
aS'PF17508'
p1022
aS'PF10784'
p1023
aS'PF02452'
p1024
aS'PF00589'
p1025
aS'PF13995'
p1026
asS'BGC0000587'
p1027
(lp1028
S'PF13437'
p1029
aS'PF00664'
p1030
aS'PF03412'
p1031
aS'PF00005'
p1032
aS'PF17508'
p1033
aS'PF02794'
p1034
aS'PF06722'
p1035
aS'PF00201'
p1036
aS'PF00756'
p1037
aS'PF11806'
p1038
asS'BGC0000586'
p1039
(lp1040
S'PF06722'
p1041
aS'PF00201'
p1042
aS'PF00756'
p1043
aS'PF11806'
p1044
aS'PF00664'
p1045
aS'PF03412'
p1046
aS'PF00005'
p1047
aS'PF02517'
p1048
aS'PF02794'
p1049
aS'PF13437'
p1050
aS'PF13533'
p1051
asS'BGC0000585'
p1052
(lp1053
S'PF02016'
p1054
aS'PF08241'
p1055
aS'PF02784'
p1056
aS'PF13302'
p1057
aS'PF00899'
p1058
aS'PF07690'
p1059
asS'BGC0000584'
p1060
(lp1061
S'PF02894'
p1062
aS'PF00005'
p1063
aS'PF00664'
p1064
aS'PF17508'
p1065
aS'PF00743'
p1066
asS'BGC0000468'
p1067
(lp1068
S'PF04055'
p1069
aS'PF04055'
p1070
aS'PF00067'
p1071
aS'PF09860'
p1072
aS'PF05977'
p1073
aS'PF00883'
p1074
aS'PF02789'
p1075
aS'PF04072'
p1076
aS'PF04055'
p1077
aS'PF02624'
p1078
aS'PF00561'
p1079
asS'BGC0000469'
p1080
(lp1081
S'PF02378'
p1082
aS'PF01725'
p1083
aS'PF00912'
p1084
aS'PF00905'
p1085
aS'PF06182'
p1086
aS'PF04072'
p1087
aS'PF02624'
p1088
aS'PF00291'
p1089
aS'PF00578'
p1090
aS'PF13377'
p1091
aS'PF00356'
p1092
aS'PF08044'
p1093
aS'PF02597'
p1094
aS'PF12706'
p1095
aS'PF00166'
p1096
aS'PF04055'
p1097
aS'PF07690'
p1098
aS'PF07690'
p1099
aS'PF04055'
p1100
aS'PF04055'
p1101
aS'PF00005'
p1102
aS'PF06182'
p1103
aS'PF04286'
p1104
aS'PF01979'
p1105
aS'PF02624'
p1106
aS'PF00561'
p1107
aS'PF09860'
p1108
aS'PF13472'
p1109
aS'PF00067'
p1110
aS'PF00367'
p1111
aS'PF01138'
p1112
aS'PF03725'
p1113
aS'PF00883'
p1114
aS'PF02789'
p1115
asS'BGC0000581'
p1116
(lp1117
S'PF00005'
p1118
aS'PF00664'
p1119
aS'PF13471'
p1120
aS'PF00733'
p1121
asS'BGC0000580'
p1122
(lp1123
S'PF00733'
p1124
aS'PF13471'
p1125
asS'BGC0001356'
p1126
(lp1127
S'PF13537'
p1128
aS'PF00733'
p1129
aS'PF00733'
p1130
aS'PF05402'
p1131
aS'PF00005'
p1132
aS'PF00664'
p1133
aS'PF13471'
p1134
asS'BGC0001210'
p1135
(lp1136
S'PF00005'
p1137
aS'PF03412'
p1138
aS'PF00664'
p1139
aS'PF13575'
p1140
aS'PF05147'
p1141
aS'PF12730'
p1142
aS'PF00005'
p1143
aS'PF12730'
p1144
asS'BGC0000499'
p1145
(lp1146
S'PF12730'
p1147
aS'PF13575'
p1148
aS'PF05147'
p1149
aS'PF04604'
p1150
aS'PF12730'
p1151
asS'BGC0001307'
p1152
(lp1153
S'PF00733'
p1154
aS'PF13471'
p1155
aS'PF05402'
p1156
aS'PF03995'
p1157
aS'PF04138'
p1158
asS'BGC0000510'
p1159
(lp1160
S'PF00082'
p1161
asS'BGC0000511'
p1162
(lp1163
S'PF00072'
p1164
aS'PF00486'
p1165
aS'PF00005'
p1166
aS'PF04738'
p1167
aS'PF14028'
p1168
aS'PF12730'
p1169
aS'PF00005'
p1170
aS'PF01638'
p1171
aS'PF02518'
p1172
aS'PF00512'
p1173
aS'PF05147'
p1174
aS'PF02052'
p1175
aS'PF02052'
p1176
aS'PF05147'
p1177
asS'BGC0000513'
p1178
(lp1179
S'PF00005'
p1180
aS'PF00664'
p1181
aS'PF00005'
p1182
aS'PF00069'
p1183
asS'BGC0000514'
p1184
(lp1185
S'PF00486'
p1186
aS'PF00082'
p1187
aS'PF00005'
p1188
aS'PF00664'
p1189
aS'PF02698'
p1190
aS'PF04738'
p1191
aS'PF14028'
p1192
aS'PF00005'
p1193
aS'PF02441'
p1194
aS'PF05147'
p1195
aS'PF02052'
p1196
aS'PF12730'
p1197
asS'BGC0000515'
p1198
(lp1199
S'PF12730'
p1200
aS'PF02052'
p1201
aS'PF02518'
p1202
aS'PF00512'
p1203
aS'PF00005'
p1204
aS'PF04738'
p1205
aS'PF14028'
p1206
aS'PF00005'
p1207
aS'PF00072'
p1208
aS'PF00486'
p1209
aS'PF05147'
p1210
aS'PF12730'
p1211
asS'BGC0000516'
p1212
(lp1213
S'PF05139'
p1214
aS'PF13575'
p1215
aS'PF05147'
p1216
aS'PF00005'
p1217
aS'PF03412'
p1218
aS'PF00664'
p1219
aS'PF00072'
p1220
aS'PF00196'
p1221
aS'PF00348'
p1222
aS'PF05952'
p1223
aS'PF07730'
p1224
aS'PF02518'
p1225
asS'BGC0000517'
p1226
(lp1227
S'PF13575'
p1228
aS'PF05147'
p1229
aS'PF03412'
p1230
aS'PF00005'
p1231
aS'PF00664'
p1232
aS'PF14867'
p1233
aS'PF13575'
p1234
aS'PF05147'
p1235
asS'BGC0001188'
p1236
(lp1237
S'PF00561'
p1238
aS'PF13649'
p1239
aS'PF00664'
p1240
aS'PF00005'
p1241
aS'PF13450'
p1242
asS'BGC0000519'
p1243
(lp1244
S'PF00005'
p1245
aS'PF00069'
p1246
aS'PF05147'
p1247
aS'PF00005'
p1248
aS'PF00664'
p1249
asS'BGC0000572'
p1250
(lp1251
S'PF00005'
p1252
aS'PF13471'
p1253
aS'PF00733'
p1254
asS'BGC0000573'
p1255
(lp1256
S'PF00392'
p1257
aS'PF00326'
p1258
aS'PF00733'
p1259
aS'PF00593'
p1260
aS'PF07715'
p1261
aS'PF13471'
p1262
asS'BGC0000570'
p1263
(lp1264
S'PF13471'
p1265
aS'PF00392'
p1266
aS'PF00733'
p1267
aS'PF00733'
p1268
asS'BGC0000571'
p1269
(lp1270
S'PF00733'
p1271
aS'PF00005'
p1272
aS'PF00664'
p1273
aS'PF13471'
p1274
asS'BGC0000576'
p1275
(lp1276
S'PF00733'
p1277
aS'PF00593'
p1278
aS'PF07715'
p1279
aS'PF13471'
p1280
asS'BGC0000577'
p1281
(lp1282
S'PF00593'
p1283
aS'PF07715'
p1284
aS'PF13471'
p1285
aS'PF00733'
p1286
aS'PF00733'
p1287
aS'PF00326'
p1288
aS'PF07676'
p1289
aS'PF01381'
p1290
aS'PF00392'
p1291
asS'BGC0000574'
p1292
(lp1293
S'PF00733'
p1294
aS'PF13471'
p1295
aS'PF00326'
p1296
aS'PF00392'
p1297
asS'BGC0000575'
p1298
(lp1299
S'PF00733'
p1300
aS'PF00664'
p1301
aS'PF00005'
p1302
aS'PF13471'
p1303
aS'PF05402'
p1304
asS'BGC0000578'
p1305
(lp1306
S'PF00733'
p1307
aS'PF13471'
p1308
aS'PF05402'
p1309
aS'PF00664'
p1310
aS'PF00005'
p1311
aS'PF00733'
p1312
asS'BGC0000579'
p1313
(lp1314
S'PF13462'
p1315
aS'PF07291'
p1316
aS'PF00005'
p1317
aS'PF05402'
p1318
aS'PF13471'
p1319
aS'PF00733'
p1320
aS'PF01061'
p1321
asS'BGC0001364'
p1322
(lp1323
S'PF13788'
p1324
aS'PF13377'
p1325
aS'PF00356'
p1326
aS'PF07366'
p1327
aS'PF16912'
p1328
aS'PF08240'
p1329
aS'PF07862'
p1330
aS'PF13575'
p1331
aS'PF05147'
p1332
aS'PF13460'
p1333
aS'PF12728'
p1334
aS'PF00005'
p1335
aS'PF13560'
p1336
asS'BGC0000518'
p1337
(lp1338
S'PF00072'
p1339
aS'PF07228'
p1340
aS'PF08447'
p1341
aS'PF13581'
p1342
aS'PF13185'
p1343
aS'PF07228'
p1344
aS'PF13185'
p1345
aS'PF08448'
p1346
aS'PF02983'
p1347
aS'PF00089'
p1348
aS'PF00005'
p1349
aS'PF00069'
p1350
asS'BGC0001209'
p1351
(lp1352
S'PF04055'
p1353
aS'PF01381'
p1354
asS'BGC0001167'
p1355
(lp1356
S'PF00082'
p1357
aS'PF00082'
p1358
aS'PF05685'
p1359
aS'PF05685'
p1360
aS'PF01724'
p1361
aS'PF05685'
p1362
asS'BGC0000507'
p1363
(lp1364
S'PF00082'
p1365
aS'PF13561'
p1366
aS'PF04738'
p1367
aS'PF14028'
p1368
aS'PF04738'
p1369
aS'PF05147'
p1370
aS'PF08130'
p1371
asS'BGC0000506'
p1372
(lp1373
S'PF00005'
p1374
aS'PF12730'
p1375
aS'PF05147'
p1376
aS'PF04738'
p1377
aS'PF14028'
p1378
aS'PF02518'
p1379
aS'PF00512'
p1380
aS'PF02052'
p1381
aS'PF00015'
p1382
aS'PF12729'
p1383
aS'PF00672'
p1384
aS'PF00005'
p1385
aS'PF00072'
p1386
aS'PF00486'
p1387
asS'BGC0000504'
p1388
(lp1389
S'PF16934'
p1390
aS'PF16934'
p1391
aS'PF03412'
p1392
aS'PF00005'
p1393
aS'PF00664'
p1394
aS'PF00082'
p1395
aS'PF13575'
p1396
aS'PF05147'
p1397
asS'BGC0000503'
p1398
(lp1399
S'PF03704'
p1400
aS'PF00486'
p1401
aS'PF05147'
p1402
aS'PF13575'
p1403
aS'PF07730'
p1404
aS'PF01061'
p1405
aS'PF01205'
p1406
aS'PF09186'
p1407
aS'PF07862'
p1408
aS'PF00005'
p1409
aS'PF00072'
p1410
aS'PF00196'
p1411
aS'PF09335'
p1412
aS'PF13380'
p1413
aS'PF13649'
p1414
aS'PF00892'
p1415
aS'PF07883'
p1416
aS'PF01381'
p1417
asS'BGC0000502'
p1418
(lp1419
S'PF00082'
p1420
aS'PF00196'
p1421
aS'PF03412'
p1422
aS'PF00005'
p1423
aS'PF00664'
p1424
aS'PF12698'
p1425
aS'PF00005'
p1426
aS'PF13732'
p1427
aS'PF16934'
p1428
aS'PF16934'
p1429
aS'PF00072'
p1430
aS'PF00196'
p1431
aS'PF00348'
p1432
aS'PF02518'
p1433
aS'PF07730'
p1434
aS'PF16934'
p1435
aS'PF16934'
p1436
aS'PF16934'
p1437
aS'PF16934'
p1438
aS'PF13575'
p1439
aS'PF05147'
p1440
aS'PF16934'
p1441
asS'BGC0000501'
p1442
(lp1443
S'PF00005'
p1444
aS'PF00005'
p1445
aS'PF00664'
p1446
aS'PF00069'
p1447
asS'BGC0000500'
p1448
(lp1449
S'PF00082'
p1450
aS'PF00005'
p1451
aS'PF03412'
p1452
aS'PF00664'
p1453
aS'PF03358'
p1454
aS'PF13575'
p1455
aS'PF05147'
p1456
aS'PF16934'
p1457
aS'PF16934'
p1458
asS'BGC0000509'
p1459
(lp1460
S'PF05147'
p1461
aS'PF00239'
p1462
aS'PF02796'
p1463
aS'PF13561'
p1464
aS'PF12730'
p1465
aS'PF02517'
p1466
aS'PF00664'
p1467
aS'PF00005'
p1468
aS'PF00082'
p1469
aS'PF08130'
p1470
aS'PF04738'
p1471
aS'PF14028'
p1472
asS'BGC0000508'
p1473
(lp1474
S'PF02052'
p1475
aS'PF00486'
p1476
aS'PF04738'
p1477
aS'PF14028'
p1478
aS'PF05147'
p1479
aS'PF02441'
p1480
aS'PF00664'
p1481
aS'PF00005'
p1482
aS'PF00082'
p1483
aS'PF00664'
p1484
asS'BGC0000561'
p1485
(lp1486
S'PF03412'
p1487
aS'PF00005'
p1488
aS'PF00664'
p1489
aS'PF00196'
p1490
aS'PF00005'
p1491
aS'PF04604'
p1492
aS'PF13575'
p1493
aS'PF05147'
p1494
aS'PF11799'
p1495
aS'PF11798'
p1496
aS'PF13155'
p1497
aS'PF13154'
p1498
aS'PF00085'
p1499
aS'PF12730'
p1500
asS'BGC0000560'
p1501
(lp1502
S'PF00664'
p1503
aS'PF00005'
p1504
aS'PF00082'
p1505
aS'PF04738'
p1506
aS'PF14028'
p1507
aS'PF05147'
p1508
asS'BGC0000563'
p1509
(lp1510
S'PF00005'
p1511
aS'PF01061'
p1512
aS'PF05147'
p1513
aS'PF00069'
p1514
asS'BGC0000562'
p1515
(lp1516
S'PF04604'
p1517
asS'BGC0000565'
p1518
(lp1519
S'PF13808'
p1520
aS'PF01609'
p1521
aS'PF00005'
p1522
aS'PF00881'
p1523
aS'PF02624'
p1524
aS'PF00448'
p1525
aS'PF02978'
p1526
aS'PF02881'
p1527
aS'PF13302'
p1528
aS'PF13359'
p1529
aS'PF13613'
p1530
aS'PF00005'
p1531
aS'PF14028'
p1532
aS'PF13340'
p1533
asS'BGC0000564'
p1534
(lp1535
S'PF02624'
p1536
aS'PF00881'
p1537
aS'PF00005'
p1538
aS'PF02517'
p1539
aS'PF12698'
p1540
aS'PF12698'
p1541
asS'BGC0000567'
p1542
(lp1543
S'PF02624'
p1544
asS'BGC0000566'
p1545
(lp1546
S'PF12698'
p1547
aS'PF12698'
p1548
aS'PF00005'
p1549
aS'PF02517'
p1550
aS'PF02624'
p1551
aS'PF00881'
p1552
asS'BGC0000569'
p1553
(lp1554
S'PF13847'
p1555
aS'PF01061'
p1556
aS'PF02624'
p1557
aS'PF00881'
p1558
aS'PF00005'
p1559
aS'PF13601'
p1560
aS'PF02517'
p1561
aS'PF13599'
p1562
asS'BGC0000568'
p1563
(lp1564
S'PF00005'
p1565
aS'PF13599'
p1566
aS'PF13599'
p1567
aS'PF02624'
p1568
aS'PF00881'
p1569
asS'BGC0000486'
p1570
(lp1571
S'PF04397'
p1572
aS'PF00072'
p1573
aS'PF14501'
p1574
aS'PF00005'
p1575
aS'PF13346'
p1576
aS'PF12173'
p1577
aS'PF01944'
p1578
asS'BGC0000487'
p1579
(lp1580
S'PF13728'
p1581
aS'PF12704'
p1582
aS'PF02687'
p1583
aS'PF13437'
p1584
aS'PF00005'
p1585
aS'PF01944'
p1586
aS'PF00005'
p1587
aS'PF09221'
p1588
asS'BGC0000484'
p1589
(lp1590
S'PF00535'
p1591
aS'PF00005'
p1592
aS'PF03412'
p1593
aS'PF00664'
p1594
aS'PF00085'
p1595
aS'PF04397'
p1596
asS'BGC0000485'
p1597
(lp1598
S'PF01944'
p1599
aS'PF12173'
p1600
asS'BGC0000483'
p1601
(lp1602
S'PF00082'
p1603
aS'PF00881'
p1604
aS'PF08241'
p1605
aS'PF02624'
p1606
aS'PF00082'
p1607
asS'BGC0000480'
p1608
(lp1609
S'PF02624'
p1610
aS'PF00082'
p1611
aS'PF00082'
p1612
aS'PF00881'
p1613
asS'BGC0000481'
p1614
(lp1615
S'PF02624'
p1616
aS'PF04255'
p1617
aS'PF03693'
p1618
aS'PF00082'
p1619
aS'PF00881'
p1620
aS'PF08869'
p1621
aS'PF00082'
p1622
aS'PF01797'
p1623
asS'BGC0001171'
p1624
(lp1625
S'PF00005'
p1626
aS'PF01061'
p1627
aS'PF02624'
p1628
aS'PF02517'
p1629
aS'PF00881'
p1630
asS'BGC0001170'
p1631
(lp1632
S'PF12698'
p1633
aS'PF12698'
p1634
aS'PF00881'
p1635
aS'PF02517'
p1636
aS'PF02624'
p1637
aS'PF00005'
p1638
asS'BGC0001173'
p1639
(lp1640
S'PF02517'
p1641
aS'PF13601'
p1642
aS'PF02624'
p1643
aS'PF00881'
p1644
aS'PF13599'
p1645
aS'PF13599'
p1646
aS'PF00005'
p1647
aS'PF01061'
p1648
aS'PF13489'
p1649
asS'BGC0001174'
p1650
(lp1651
S'PF00881'
p1652
aS'PF13649'
p1653
aS'PF02624'
p1654
asS'BGC0000488'
p1655
(lp1656
S'PF04647'
p1657
aS'PF12704'
p1658
aS'PF02687'
p1659
aS'PF00005'
p1660
aS'PF00072'
p1661
aS'PF04397'
p1662
aS'PF14501'
p1663
aS'PF09221'
p1664
aS'PF01944'
p1665
aS'PF00005'
p1666
aS'PF16576'
p1667
aS'PF13533'
p1668
asS'BGC0000489'
p1669
(lp1670
S'PF01944'
p1671
aS'PF00005'
p1672
aS'PF09221'
p1673
asS'BGC0000479'
p1674
(lp1675
S'PF01797'
p1676
aS'PF05685'
p1677
aS'PF04480'
p1678
aS'PF04365'
p1679
aS'PF05685'
p1680
aS'PF00082'
p1681
aS'PF00082'
p1682
asS'BGC0000583'
p1683
(lp1684
S'PF02441'
p1685
aS'PF13649'
p1686
aS'PF12697'
p1687
aS'PF00005'
p1688
aS'PF03704'
p1689
aS'PF13191'
p1690
asS'BGC0000473'
p1691
(lp1692
S'PF00082'
p1693
aS'PF00082'
p1694
aS'PF00881'
p1695
aS'PF02624'
p1696
asS'BGC0000472'
p1697
(lp1698
S'PF13083'
p1699
aS'PF01797'
p1700
aS'PF05685'
p1701
aS'PF00448'
p1702
aS'PF02978'
p1703
aS'PF02881'
p1704
aS'PF00082'
p1705
aS'PF00082'
p1706
aS'PF00886'
p1707
aS'PF08869'
p1708
asS'BGC0000471'
p1709
(lp1710
S'PF00082'
p1711
aS'PF02624'
p1712
aS'PF08241'
p1713
aS'PF00082'
p1714
aS'PF00881'
p1715
asS'BGC0000470'
p1716
(lp1717
S'PF04055'
p1718
aS'PF02624'
p1719
aS'PF02624'
p1720
aS'PF04055'
p1721
aS'PF04072'
p1722
aS'PF00067'
p1723
aS'PF07690'
p1724
aS'PF07690'
p1725
aS'PF04055'
p1726
aS'PF00561'
p1727
asS'BGC0000477'
p1728
(lp1729
S'PF02624'
p1730
aS'PF00082'
p1731
aS'PF00082'
p1732
asS'BGC0000475'
p1733
(lp1734
S'PF00082'
p1735
aS'PF03441'
p1736
aS'PF00875'
p1737
aS'PF00082'
p1738
aS'PF00881'
p1739
aS'PF02624'
p1740
asS'BGC0000474'
p1741
(lp1742
S'PF02624'
p1743
aS'PF00082'
p1744
aS'PF00082'
p1745
aS'PF00881'
p1746
asS'BGC0000554'
p1747
(lp1748
S'PF03412'
p1749
aS'PF00005'
p1750
aS'PF00664'
p1751
aS'PF13575'
p1752
aS'PF05147'
p1753
asS'BGC0000555'
p1754
(lp1755
S'PF13575'
p1756
aS'PF05147'
p1757
aS'PF03412'
p1758
aS'PF00005'
p1759
aS'PF00664'
p1760
aS'PF14867'
p1761
aS'PF00005'
p1762
aS'PF05147'
p1763
aS'PF13575'
p1764
asS'BGC0000628'
p1765
(lp1766
S'PF00501'
p1767
aS'PF00004'
p1768
aS'PF02624'
p1769
aS'PF07739'
p1770
aS'PF14028'
p1771
aS'PF04738'
p1772
aS'PF00561'
p1773
aS'PF00589'
p1774
asS'BGC0000557'
p1775
(lp1776
S'PF00072'
p1777
aS'PF00486'
p1778
aS'PF03412'
p1779
aS'PF00005'
p1780
aS'PF00664'
p1781
aS'PF02518'
p1782
aS'PF00512'
p1783
aS'PF05147'
p1784
aS'PF13575'
p1785
aS'PF04604'
p1786
aS'PF00005'
p1787
aS'PF12730'
p1788
aS'PF04604'
p1789
aS'PF00665'
p1790
aS'PF01527'
p1791
aS'PF13276'
p1792
aS'PF13333'
p1793
asS'BGC0000550'
p1794
(lp1795
S'PF13575'
p1796
aS'PF00072'
p1797
aS'PF04604'
p1798
aS'PF04604'
p1799
aS'PF04604'
p1800
asS'BGC0000551'
p1801
(lp1802
S'PF00069'
p1803
aS'PF00005'
p1804
aS'PF00664'
p1805
aS'PF00005'
p1806
asS'BGC0000552'
p1807
(lp1808
S'PF00005'
p1809
aS'PF03412'
p1810
aS'PF00664'
p1811
aS'PF14867'
p1812
aS'PF13575'
p1813
aS'PF05147'
p1814
aS'PF05147'
p1815
aS'PF13575'
p1816
aS'PF00005'
p1817
asS'BGC0000553'
p1818
(lp1819
S'PF00196'
p1820
aS'PF00072'
p1821
aS'PF00069'
p1822
aS'PF00664'
p1823
aS'PF00005'
p1824
asS'BGC0000622'
p1825
(lp1826
S'PF01520'
p1827
aS'PF00462'
p1828
aS'PF04545'
p1829
aS'PF00082'
p1830
asS'BGC0000623'
p1831
(lp1832
S'PF00005'
p1833
aS'PF03412'
p1834
aS'PF00664'
p1835
aS'PF14867'
p1836
asS'BGC0000620'
p1837
(lp1838
S'PF03703'
p1839
aS'PF09848'
p1840
aS'PF01719'
p1841
aS'PF00910'
p1842
aS'PF01381'
p1843
aS'PF00589'
p1844
aS'PF00746'
p1845
aS'PF03703'
p1846
aS'PF00005'
p1847
aS'PF11758'
p1848
asS'BGC0000621'
p1849
(lp1850
S'PF02048'
p1851
asS'BGC0000626'
p1852
(lp1853
S'PF04604'
p1854
aS'PF00005'
p1855
aS'PF03412'
p1856
aS'PF00664'
p1857
aS'PF12730'
p1858
aS'PF00005'
p1859
aS'PF13575'
p1860
aS'PF05147'
p1861
asS'BGC0000559'
p1862
(lp1863
S'PF13560'
p1864
aS'PF12730'
p1865
aS'PF00005'
p1866
aS'PF05147'
p1867
aS'PF02518'
p1868
aS'PF00512'
p1869
aS'PF00005'
p1870
aS'PF02052'
p1871
aS'PF01638'
p1872
aS'PF04738'
p1873
aS'PF14028'
p1874
aS'PF13560'
p1875
aS'PF00072'
p1876
aS'PF00486'
p1877
asS'BGC0000624'
p1878
(lp1879
S'PF13437'
p1880
aS'PF10439'
p1881
aS'PF14501'
p1882
aS'PF10439'
p1883
aS'PF04397'
p1884
aS'PF00072'
p1885
aS'PF00664'
p1886
aS'PF03412'
p1887
aS'PF00005'
p1888
asS'BGC0000625'
p1889
(lp1890
S'PF02441'
p1891
aS'PF03704'
p1892
aS'PF00486'
p1893
aS'PF00931'
p1894
aS'PF13374'
p1895
aS'PF00561'
p1896
aS'PF07812'
p1897
aS'PF02624'
p1898
aS'PF00112'
p1899
aS'PF05721'
p1900
aS'PF01636'
p1901
aS'PF06325'
p1902
aS'PF01636'
p1903
aS'PF00476'
p1904
aS'PF13177'
p1905
aS'PF03704'
p1906
aS'PF00486'
p1907
aS'PF13581'
p1908
aS'PF00196'
p1909
asS'BGC0000495'
p1910
(lp1911
S'PF00553'
p1912
aS'PF12697'
p1913
aS'PF00528'
p1914
aS'PF01547'
p1915
aS'PF00196'
p1916
aS'PF00072'
p1917
aS'PF13407'
p1918
aS'PF00005'
p1919
aS'PF01116'
p1920
aS'PF00912'
p1921
aS'PF00905'
p1922
aS'PF04672'
p1923
aS'PF02776'
p1924
aS'PF00205'
p1925
aS'PF02775'
p1926
aS'PF00004'
p1927
aS'PF07730'
p1928
aS'PF02687'
p1929
aS'PF02687'
p1930
aS'PF00296'
p1931
aS'PF13575'
p1932
aS'PF05147'
p1933
aS'PF00072'
p1934
aS'PF00196'
p1935
aS'PF00005'
p1936
aS'PF01263'
p1937
aS'PF02653'
p1938
aS'PF00528'
p1939
aS'PF12697'
p1940
aS'PF01670'
p1941
aS'PF13419'
p1942
aS'PF00383'
p1943
aS'PF05050'
p1944
aS'PF00196'
p1945
aS'PF13185'
p1946
asS'BGC0000494'
p1947
(lp1948
S'PF01808'
p1949
aS'PF00005'
p1950
aS'PF09221'
p1951
aS'PF04397'
p1952
aS'PF01944'
p1953
asS'BGC0000497'
p1954
(lp1955
S'PF00005'
p1956
aS'PF03412'
p1957
aS'PF00664'
p1958
aS'PF05147'
p1959
aS'PF13575'
p1960
aS'PF13575'
p1961
aS'PF05147'
p1962
aS'PF14867'
p1963
aS'PF00005'
p1964
aS'PF01381'
p1965
asS'BGC0000496'
p1966
(lp1967
S'PF00005'
p1968
aS'PF00005'
p1969
aS'PF00664'
p1970
aS'PF00196'
p1971
aS'PF00072'
p1972
aS'PF00069'
p1973
asS'BGC0001148'
p1974
(lp1975
S'PF02797'
p1976
aS'PF00195'
p1977
aS'PF13515'
p1978
aS'PF03466'
p1979
aS'PF00126'
p1980
aS'PF04389'
p1981
aS'PF02868'
p1982
aS'PF01447'
p1983
aS'PF03831'
p1984
aS'PF08274'
p1985
aS'PF00668'
p1986
aS'PF05977'
p1987
aS'PF00664'
p1988
aS'PF00005'
p1989
aS'PF00891'
p1990
aS'PF16864'
p1991
aS'PF00067'
p1992
aS'PF00664'
p1993
aS'PF00005'
p1994
aS'PF04055'
p1995
aS'PF02310'
p1996
aS'PF00378'
p1997
aS'PF00155'
p1998
aS'PF00501'
p1999
aS'PF13193'
p2000
aS'PF00550'
p2001
aS'PF00378'
p2002
asS'BGC0000490'
p2003
(lp2004
S'PF09221'
p2005
aS'PF00005'
p2006
aS'PF01944'
p2007
asS'BGC0001145'
p2008
(lp2009
S'PF00881'
p2010
aS'PF00881'
p2011
aS'PF13191'
p2012
aS'PF00196'
p2013
aS'PF02624'
p2014
aS'PF02624'
p2015
aS'PF14028'
p2016
aS'PF14028'
p2017
aS'PF04738'
p2018
asS'BGC0001146'
p2019
(lp2020
S'PF00196'
p2021
aS'PF13191'
p2022
aS'PF04738'
p2023
aS'PF02624'
p2024
aS'PF14028'
p2025
aS'PF00881'
p2026
aS'PF00881'
p2027
asS'BGC0000603'
p2028
(lp2029
S'PF07690'
p2030
aS'PF07690'
p2031
aS'PF13586'
p2032
aS'PF13560'
p2033
aS'PF13191'
p2034
aS'PF00196'
p2035
aS'PF13340'
p2036
aS'PF00881'
p2037
aS'PF00881'
p2038
aS'PF04738'
p2039
aS'PF14028'
p2040
aS'PF13586'
p2041
aS'PF00881'
p2042
aS'PF07110'
p2043
aS'PF13643'
p2044
aS'PF02624'
p2045
aS'PF14028'
p2046
asS'BGC0001306'
p2047
(lp2048
S'PF11807'
p2049
aS'PF07690'
p2050
aS'PF05368'
p2051
asS'BGC0000498'
p2052
(lp2053
S'PF00085'
p2054
aS'PF03412'
p2055
aS'PF00005'
p2056
aS'PF00664'
p2057
aS'PF13575'
p2058
aS'PF05147'
p2059
aS'PF13154'
p2060
aS'PF00176'
p2061
aS'PF00271'
p2062
aS'PF00196'
p2063
aS'PF00072'
p2064
aS'PF04604'
p2065
aS'PF12730'
p2066
aS'PF00005'
p2067
as.